###############################################################################
#                                                                             #
# IAR ELF Linker V6.30.1.53127/W32 for ARM              11/May/2013  13:12:01 #
# Copyright 2007-2011 IAR Systems AB.                                         #
#                                                                             #
#    Output file  =  L:\git_workspace\YD_PRJ_NEW_20130323_git_\IAR\twrk60n512 #
#                    \Int Flash Debug\Exe\twrk60n512.out                      #
#    Map file     =  L:\git_workspace\YD_PRJ_NEW_20130323_git_\IAR\twrk60n512 #
#                    \Int Flash Debug\List\twrk60n512.map                     #
#    Command line =  "L:\git_workspace\YD_PRJ_NEW_20130323_git_\IAR\twrk60n51 #
#                    2\Int Flash Debug\Obj\DSPSPI.o"                          #
#                    "L:\git_workspace\YD_PRJ_NEW_20130323_git_\IAR\twrk60n51 #
#                    2\Int Flash Debug\Obj\DataConvert.o"                     #
#                    "L:\git_workspace\YD_PRJ_NEW_20130323_git_\IAR\twrk60n51 #
#                    2\Int Flash Debug\Obj\DisTime.o"                         #
#                    "L:\git_workspace\YD_PRJ_NEW_20130323_git_\IAR\twrk60n51 #
#                    2\Int Flash Debug\Obj\FTP_Task.o"                        #
#                    "L:\git_workspace\YD_PRJ_NEW_20130323_git_\IAR\twrk60n51 #
#                    2\Int Flash Debug\Obj\LCDDriver.o"                       #
#                    "L:\git_workspace\YD_PRJ_NEW_20130323_git_\IAR\twrk60n51 #
#                    2\Int Flash Debug\Obj\LCDUart.o"                         #
#                    "L:\git_workspace\YD_PRJ_NEW_20130323_git_\IAR\twrk60n51 #
#                    2\Int Flash Debug\Obj\MenuView.o"                        #
#                    "L:\git_workspace\YD_PRJ_NEW_20130323_git_\IAR\twrk60n51 #
#                    2\Int Flash Debug\Obj\SD_task.o"                         #
#                    "L:\git_workspace\YD_PRJ_NEW_20130323_git_\IAR\twrk60n51 #
#                    2\Int Flash Debug\Obj\Shell_Task.o"                      #
#                    "L:\git_workspace\YD_PRJ_NEW_20130323_git_\IAR\twrk60n51 #
#                    2\Int Flash Debug\Obj\System.o"                          #
#                    "L:\git_workspace\YD_PRJ_NEW_20130323_git_\IAR\twrk60n51 #
#                    2\Int Flash Debug\Obj\USB_File.o"                        #
#                    "L:\git_workspace\YD_PRJ_NEW_20130323_git_\IAR\twrk60n51 #
#                    2\Int Flash Debug\Obj\USB_Task.o"                        #
#                    "L:\git_workspace\YD_PRJ_NEW_20130323_git_\IAR\twrk60n51 #
#                    2\Int Flash Debug\Obj\mem_flash.o"                       #
#                    "L:\git_workspace\YD_PRJ_NEW_20130323_git_\IAR\twrk60n51 #
#                    2\Int Flash Debug\Obj\mem_ram.o"                         #
#                    "L:\git_workspace\YD_PRJ_NEW_20130323_git_\IAR\twrk60n51 #
#                    2\Int Flash Debug\Obj\pin2.o"                            #
#                    "L:\git_workspace\YD_PRJ_NEW_20130323_git_\IAR\twrk60n51 #
#                    2\Int Flash Debug\Obj\sh_cd.o"                           #
#                    "L:\git_workspace\YD_PRJ_NEW_20130323_git_\IAR\twrk60n51 #
#                    2\Int Flash Debug\Obj\sh_di.o"                           #
#                    "L:\git_workspace\YD_PRJ_NEW_20130323_git_\IAR\twrk60n51 #
#                    2\Int Flash Debug\Obj\tcpip_socket_task.o"               #
#                    "L:\git_workspace\YD_PRJ_NEW_20130323_git_\IAR\twrk60n51 #
#                    2\Int Flash Debug\Obj\usb_classes.o"                     #
#                    "L:\git_workspace\YD_PRJ_NEW_20130323_git_\IAR\twrk60n51 #
#                    2\Int Flash Debug\Obj\yada_prj.o"                        #
#                    L:\git_workspace\YD_PRJ_NEW_20130323_git_\lib\twrk60n512 #
#                    .iar\bsp\bsp_twrk60n512_130418_SPI_TX_56Data_Buf6175_RTC #
#                    .a L:\git_workspace\YD_PRJ_NEW_20130323_git_\lib\twrk60n #
#                    512.iar\mfs\mfs_twrk60n512_d.a                           #
#                    L:\git_workspace\YD_PRJ_NEW_20130323_git_\lib\twrk60n512 #
#                    .iar\psp\psp_twrk60n512_d.a                              #
#                    L:\git_workspace\YD_PRJ_NEW_20130323_git_\lib\twrk60n512 #
#                    .iar\rtcs\rtcs_twrk60n512_d_20130105.a                   #
#                    L:\git_workspace\YD_PRJ_NEW_20130323_git_\lib\twrk60n512 #
#                    .iar\shell\shell_twrk60n512_d_20130509.a                 #
#                    L:\git_workspace\YD_PRJ_NEW_20130323_git_\lib\twrk60n512 #
#                    .iar\usb\host\usb_hdk_twrk60n512_d.a --redirect          #
#                    _Printf=_PrintfFull --redirect _Scanf=_ScanfFull -o      #
#                    "L:\git_workspace\YD_PRJ_NEW_20130323_git_\IAR\twrk60n51 #
#                    2\Int Flash Debug\Exe\twrk60n512.out" --map              #
#                    "L:\git_workspace\YD_PRJ_NEW_20130323_git_\IAR\twrk60n51 #
#                    2\Int Flash Debug\List\twrk60n512.map" --config          #
#                    L:\git_workspace\YD_PRJ_NEW_20130323_git_\IAR\..\lib\twr #
#                    k60n512.iar\bsp\intflash.icf --redirect                  #
#                    __iar_dlmalloc=malloc --redirect __iar_dlcalloc=calloc   #
#                    --redirect __iar_dlfree=free --semihosting --entry       #
#                    __iar_program_start --vfe                                #
#                                                                             #
#                                                                             #
###############################################################################

*******************************************************************************
*** RUNTIME MODEL ATTRIBUTES
***

CppFlavor                   = *
__SystemLibrary             = DLib
__dlib_jmp_buf_num_elements = 8


*******************************************************************************
*** PLACEMENT SUMMARY
***

"A1":  place at 0x00000000 { ro section .intvec, block CFMPROTROM };
"P1":  place in [from 0x00000000 to 0x0007ffff] {
          first block TEXTSECTION, ro, last block FLASHX_POOL };
"P2":  place in [from 0x1fff0000 to 0x2000fff0] { rw, last block KERNEL_DATA };

  Section            Kind        Address     Size  Object
  -------            ----        -------     ----  ------
"A1":                                       0x414
  .intvec            const    0x00000000    0x400  vectors.o [3]
  CFMPROTROM                  0x00000400     0x14  <Block>
    .cfmconfig       const    0x00000400     0x10  vectors.o [3]
    .cfmconfig       const    0x00000410      0x0  vectors.o [3]
    CFMPROTROM       const    0x00000410      0x4  <Block tail>
                            - 0x00000414    0x414

"P1":                                     0x34be4
  TEXTSECTION                 0x00000420  0x2fa7c  <Block>
    .text            ro code  0x00000420     0x4c  cortex_boot.o [7]
    .text            ro code  0x0000046c      0xc  cstartup_M.o [8]
    .text            ro code  0x00000478     0x16  cmain.o [8]
    .text            ro code  0x0000048e      0xa  iar.o [3]
    .text            ro code  0x00000498     0x2c  data_init3.o [8]
    .text            ro code  0x000004c4     0x10  mqx_main.o [3]
    .text            ro code  0x000004d4      0x4  exit.o [4]
    .text            ro code  0x000004d8    0x190  init_hw.o [3]
    .text            ro code  0x00000668    0x1a8  mqx.o [7]
    .text            ro code  0x00000810      0xa  cexit.o [8]
    .text            ro code  0x0000081a     0x46  sotcp.o [9]
    .text            ro code  0x00000860    0x79c  bsp_cm.o [3]
    .text            ro code  0x00000ffc    0x54c  init_gpio.o [3]
    .text            ro code  0x00001548    0x134  mem_zero.o [7]
    .text            ro code  0x0000167c     0x76  ABImemcpy.o [8]
    .text            ro code  0x000016f2     0x56  macnet_rejoin.o [3]
    .text            ro code  0x00001748     0xd8  mqxiinit.o [7]
    .text            ro code  0x00001820     0x28  lwm_init.o [7]
    .text            ro code  0x00001848     0x18  lwm_gsys.o [7]
    .text            ro code  0x00001860     0x24  lwm_size.o [7]
    .text            ro code  0x00001884    0x1c4  ta_init.o [7]
    .text            ro code  0x00001a48     0xc0  sc_irdyq.o [7]
    .text            ro code  0x00001b08     0x74  lws_crea.o [7]
    .text            ro code  0x00001b7c    0x2dc  init_bsp.o [3]
    .text            ro code  0x00001e58     0x24  int_disa.o [7]
    .text            ro code  0x00001e7c     0x14  exit.o [10]
    .text            ro code  0x00001e90     0x14  cm.o [3]
    .text            ro code  0x00001ea4      0xc  qu_init.o [7]
    .text            ro code  0x00001eb0     0x64  lwm_crep.o [7]
    .text            ro code  0x00001f14    0x204  lwm_alli.o [7]
    .text            ro code  0x00002118     0x34  td_serr.o [7]
    .text            ro code  0x0000214c     0xd0  td_alloc.o [7]
    .text            ro code  0x0000221c     0x68  stack_bu.o [7]
    .text            ro code  0x00002284      0x8  lwm_xfri.o [7]
    .text            ro code  0x0000228c     0x18  lwm_allz.o [7]
    .text            ro code  0x000022a4     0x38  int_ena.o [7]
    .text            ro code  0x000022dc     0x3e  qu_enq.o [7]
    .text            ro code  0x0000231a     0x22  zero_init3.o [8]
    .text            ro code  0x0000233c      0xc  mqx_scpu.o [7]
    .text            ro code  0x00002348     0x30  lwm_allo.o [7]
    .text            ro code  0x00002378     0x14  psp_iinit.o [7]
    .text            ro code  0x0000238c     0x10  int_vtab.o [7]
    .text            ro code  0x0000239c     0x10  ti_setv.o [7]
    .text            ro code  0x000023ac     0xb0  int_iisr.o [7]
    .text            ro code  0x0000245c     0x10  ti_sett.o [7]
    .text            ro code  0x0000246c     0x10  ti_shwtt.o [7]
    .text            ro code  0x0000247c     0x14  ti_shwtf.o [7]
    .text            ro code  0x00002490     0x14  kinetis_mpu.o [7]
    .text            ro code  0x000024a4     0x18  io_init.o [7]
    .text            ro code  0x000024bc    0x2dc  krtc.o [3]
    .text            ro code  0x00002798    0x3b4  serl_pol_kuart.o [3]
    .text            ro code  0x00002b4c    0x1f0  serl_int_kuart.o [3]
    .text            ro code  0x00002d3c    0x86c  i2c_pol_ki2c.o [3]
    .text            ro code  0x000035a8    0x6aa  i2c_int_ki2c.o [3]
    .text            ro code  0x00003c54    0x9e8  spi_pol_dspi.o [3]
    .text            ro code  0x0000463c    0x7a0  spi_dma_dspi.o [3]
    .text            ro code  0x00004ddc    0x28c  io_gpio.o [3]
    .text            ro code  0x00005068    0x5ae  adc.o [3]
    .text            ro code  0x00005618    0xc76  esdhc.o [3]
    .text            ro code  0x00006290    0xd3c  flashx.o [3]
    .text            ro code  0x00006fcc     0x34  io_sinit.o [3]
    .text            ro code  0x00007000     0xe0  ti_krnl.o [7]
    .text            ro code  0x000070e0     0xfc  lwm_free.o [7]
    .text            ro code  0x000071dc     0x40  qu_insrt.o [7]
    .text            ro code  0x0000721c     0x78  int_init.o [7]
    .text            ro code  0x00007294     0x10  int_inst.o [7]
    .text            ro code  0x000072a4     0x1c  td_gerr.o [7]
    .text            ro code  0x000072c0     0xa0  cortex.o [7]
    .text            ro code  0x00007360    0x3a4  DisTime.o [1]
    .text            ro code  0x00007704     0x24  io_pntf.o [7]
    .text            ro code  0x00007728     0xe4  ti_to.o [7]
    .text            ro code  0x0000780c    0x1a0  ti_from.o [7]
    .text            ro code  0x000079ac     0x54  ti_kset.o [7]
    .text            ro code  0x00007a00     0x16  ti_get.o [7]
    .text            ro code  0x00007a18    0x53c  serl_pol.o [3]
    .text            ro code  0x00007f54     0x4c  serl_mk60.o [3]
    .text            ro code  0x00007fa0     0x18  lwm_zsys.o [7]
    .text            ro code  0x00007fb8    0x610  serl_int.o [3]
    .text            ro code  0x000085c8     0x60  int_gdat.o [7]
    .text            ro code  0x00008628      0x4  int_geh.o [7]
    .text            ro code  0x0000862c     0xf0  ev_open.o [7]
    .text            ro code  0x0000871c     0xe0  ev_set.o [7]
    .text            ro code  0x000087fc    0x170  i2c_pol.o [3]
    .text            ro code  0x0000896c     0x38  i2c_mk60.o [3]
    .text            ro code  0x000089a4    0x16c  i2c_int.o [3]
    .text            ro code  0x00008b10    0x196  spi_pol.o [3]
    .text            ro code  0x00008ca8     0x30  spi_mk60_dspi.o [3]
    .text            ro code  0x00008cd8    0x1a2  spi_int.o [3]
    .text            ro code  0x00008e7c    0x2c4  DSPSPI.o [1]
    .text            ro code  0x00009140    0x994  io_gpio_kgpio.o [3]
    .text            ro code  0x00009ad4     0x1a  io_inst.o [7]
    .text            ro code  0x00009aee     0x3e  io_ioctl.o [7]
    .text            ro code  0x00009b2c    0xac0  adc_kadc.o [3]
    .text            ro code  0x0000a5ec    0xaf8  adt_kpdb.o [3]
    .text            ro code  0x0000b0e4     0x42  strcmp.o [8]
    .text            ro code  0x0000b128     0x36  strlen.o [8]
    .text            ro code  0x0000b160     0x38  ti_delay.o [7]
    .text            ro code  0x0000b198    0x108  io_instx.o [7]
    .text            ro code  0x0000b2a0     0x14  esdhc_mk60.o [3]
    .text            ro code  0x0000b2b4      0xe  esdhc.o [3]
    .text            ro code  0x0000b2c4     0x78  lws_wait.o [7]
    .text            ro code  0x0000b33c    0x17c  mem_copy.o [7]
    .text            ro code  0x0000b4b8     0x7c  lws_post.o [7]
    .text            ro code  0x0000b534     0xa0  io_fopen.o [7]
    .text            ro code  0x0000b5d4     0x34  psp_tinm.o [7]
    .text            ro code  0x0000b608    0x384  LCDDriver.o [1]
    .text            ro code  0x0000b98c     0x48  io_ghand.o [7]
    .text            ro code  0x0000b9d4    0xbd4  io_dopr.o [7]
    .text            ro code  0x0000c5a8     0x42  ti_leap.o [7]
    .text            ro code  0x0000c5ea     0x26  psp_tiol.o [7]
    .text            ro code  0x0000c610     0x40  psp_tisu.o [7]
    .text            ro code  0x0000c650     0x4c  ti_gett.o [7]
    .text            ro code  0x0000c69c     0xbc  psp_tkti.o [7]
    .text            ro code  0x0000c758     0x84  tq_creat.o [7]
    .text            ro code  0x0000c7dc     0x80  tq_dest.o [7]
    .text            ro code  0x0000c85c     0xd8  tq_func.o [7]
    .text            ro code  0x0000c934     0x94  na_findi.o [7]
    .text            ro code  0x0000c9c8     0x34  io_fclos.o [7]
    .text            ro code  0x0000c9fc     0x14  ev_creat.o [7]
    .text            ro code  0x0000ca10     0x3a  ev_all.o [7]
    .text            ro code  0x0000ca4c     0x48  ev_clear.o [7]
    .text            ro code  0x0000ca94     0x2a  strncmp.o [4]
    .text            ro code  0x0000cac0      0x6  ABImemclr4.o [8]
    .text            ro code  0x0000cac8     0x14  adc_mk60.o [3]
    .text            ro code  0x0000cadc    0x132  I64DivMod.o [8]
    .text            ro code  0x0000cc10     0xd4  lwe_set.o [7]
    .text            ro code  0x0000cce4     0x84  psp_mstiq.o [7]
    .text            ro code  0x0000cd68     0x48  psp_tiad.o [7]
    .text            ro code  0x0000cdb0     0x88  ti_deli.o [7]
    .text            ro code  0x0000ce38     0x2e  qu_deq.o [7]
    .text            ro code  0x0000ce66     0x24  io_write.o [7]
    .text            ro code  0x0000ce8c     0x1c  psp_seti.o [7]
    .text            ro code  0x0000cea8     0x80  psp_msti.o [7]
    .text            ro code  0x0000cf28     0x2c  sc_ipq.o [7]
    .text            ro code  0x0000cf54     0x1c  strnlen.o [7]
    .text            ro code  0x0000cf70     0xc0  ev_creai.o [7]
    .text            ro code  0x0000d030    0x108  ev_waiti.o [7]
    .text            ro code  0x0000d138     0x32  ABImemset48.o [8]
    .text            ro code  0x0000d16c      0x2  I64DivZer.o [8]
    .text            ro code  0x0000d170     0xcc  ev_comp.o [7]
    .text            ro code  0x0000d23c     0x6c  strncpy.o [8]
    .text            ro code  0x0000d2a8    0x138  na_addi.o [7]
    .text            ro code  0x0000d3e0     0x34  ti_delun.o [7]
    .text            ro code  0x0000d414     0x38  ti_delfo.o [7]
    .text            ro code  0x0000d44c     0x7c  na_crth.o [7]
    .text            ro code  0x0000d4c8     0x5e  ABImemset.o [8]
    .text            ro code  0x0000d528    0x490  DataConvert.o [1]
    .text            ro code  0x0000d9b8     0xfc  FltDiv.o [5]
    .text            ro code  0x0000dab4     0xd8  FltMul.o [5]
    .text            ro code  0x0000db8c     0x24  FltToU32.o [5]
    .text            ro code  0x0000dbb0     0x32  I32ToFlt.o [5]
    .text            ro code  0x0000dbe2      0x8  abs.o [4]
    .text            ro code  0x0000dbec     0xe6  FltSub.o [5]
    .text            ro code  0x0000dcd4     0x44  FltToS32.o [5]
    .text            ro code  0x0000dd18     0x24  FltCmpLe.o [5]
    .text            ro code  0x0000dd3c     0x84  FltAdd.o [5]
    .text            ro code  0x0000ddc0     0xec  FTP_Task.o [1]
    .text            ro code  0x0000deac    0x26c  rtcscmd.o [9]
    .text            ro code  0x0000e118     0x24  enaddr.o [3]
    .text            ro code  0x0000e13c    0x104  eninit.o [3]
    .text            ro code  0x0000e240     0x5c  ifadd.o [9]
    .text            ro code  0x0000e29c    0x644  ftpd.o [9]
    .text            ro code  0x0000e8e0     0x88  ta_creat.o [7]
    .text            ro code  0x0000e968     0xe4  mqx_ioc.o [7]
    .text            ro code  0x0000ea4c    0x1b6  rtcspart.o [9]
    .text            ro code  0x0000ec04     0x2c  ms_id.o [7]
    .text            ro code  0x0000ec30     0x16  ms_pool.o [7]
    .text            ro code  0x0000ec48     0xa8  rtcstask.o [9]
    .text            ro code  0x0000ecf0     0x6c  ms_dpool.o [7]
    .text            ro code  0x0000ed5c     0xcc  ms_alloc.o [7]
    .text            ro code  0x0000ee28     0x58  td_get.o [7]
    .text            ro code  0x0000ee80      0xc  ms_sendb.o [7]
    .text            ro code  0x0000ee8c     0x48  ta_rdy.o [7]
    .text            ro code  0x0000eed4      0xc  ms_send.o [7]
    .text            ro code  0x0000eee0     0x10  td_gid.o [7]
    .text            ro code  0x0000eef0     0x24  td_util.o [7]
    .text            ro code  0x0000ef14     0x2c  init_enet.o [3]
    .text            ro code  0x0000ef40     0x58  enutil.o [3]
    .text            ro code  0x0000ef98     0x3c  ta_env.o [7]
    .text            ro code  0x0000efd4     0x22  ta_sexit.o [7]
    .text            ro code  0x0000eff8     0xb2  rtcs.o [9]
    .text            ro code  0x0000f0ac    0x3ea  io_util.o [7]
    .text            ro code  0x0000f498     0x44  strcpy.o [8]
    .text            ro code  0x0000f4dc     0x18  io_util.o [7]
    .text            ro code  0x0000f4f4      0x8  io_util.o [7]
    .text            ro code  0x0000f4fc     0x7c  ta_build.o [7]
    .text            ro code  0x0000f578     0x18  lwm_allp.o [7]
    .text            ro code  0x0000f590     0x18  lwm_alzp.o [7]
    .text            ro code  0x0000f5a8     0x18  lwm_gsyp.o [7]
    .text            ro code  0x0000f5c0     0x18  lwm_zsyf.o [7]
    .text            ro code  0x0000f5d8     0x84  pa_creat.o [7]
    .text            ro code  0x0000f65c     0x14  pa_sallo.o [7]
    .text            ro code  0x0000f670     0x74  pa_free.o [7]
    .text            ro code  0x0000f6e4     0x74  pa_dest.o [7]
    .text            ro code  0x0000f758    0x20c  ms_pooli.o [7]
    .text            ro code  0x0000f964     0x12  ta_util.o [7]
    .text            ro code  0x0000f978     0xa2  lws_dest.o [7]
    .text            ro code  0x0000fa1c    0x364  ms_sendi.o [7]
    .text            ro code  0x0000fd80    0x12a  sockutil.o [9]
    .text            ro code  0x0000feaa      0x8  io_util.o [7]
    .text            ro code  0x0000feb2     0x2a  io_util.o [7]
    .text            ro code  0x0000fedc     0x16  io_util.o [7]
    .text            ro code  0x0000fef4     0x7c  pa_creai.o [7]
    .text            ro code  0x0000ff70    0x118  pa_alloi.o [7]
    .text            ro code  0x00010088    0x130  ms_comp.o [7]
    .text            ro code  0x000101b8     0x60  ms_free.o [7]
    .text            ro code  0x00010218     0x10  io_util.o [7]
    .text            ro code  0x00010228      0x8  io_util.o [7]
    .text            ro code  0x00010230      0x8  io_util.o [7]
    .text            ro code  0x00010238     0x7c  pa_comp.o [7]
    .text            ro code  0x000102b4     0x5c  pa_extni.o [7]
    .text            ro code  0x00010310     0x22  io_util.o [7]
    .text            ro code  0x00010332     0x28  io_util.o [7]
    .text            ro code  0x0001035a     0x10  io_util.o [7]
    .text            ro code  0x0001036c    0xab0  LCDUart.o [1]
    .text            ro code  0x00010e1c     0x14  ev_creaa.o [7]
    .text            ro code  0x00010e30   0x3bf8  MenuView.o [1]
    .text            ro code  0x00014a28     0x52  System.o [1]
    .text            ro code  0x00014a7c     0x30  I32ToDbl.o [5]
    .text            ro code  0x00014aac    0x1a2  DblMul.o [5]
    .text            ro code  0x00014c50    0x246  DblDiv.o [5]
    .text            ro code  0x00014e98     0x90  DblToFlt.o [5]
    .text            ro code  0x00014f28     0x4e  FltToDbl.o [5]
    .text            ro code  0x00014f76      0x6  cos.o [5]
    .text            ro code  0x00014f7c     0xe8  DblAdd.o [5]
    .text            ro code  0x00015064     0x4c  DblToI32.o [5]
    .text            ro code  0x000150b0      0x6  sin.o [5]
    .text            ro code  0x000150b8    0x180  DblSub.o [5]
    .text            ro code  0x00015238     0x24  FltCmpGe.o [5]
    .text            ro code  0x0001525c    0x14c  sh_cd.o [1]
    .text            ro code  0x000153a8     0x90  sh_pwd.o [11]
    .text            ro code  0x00015438    0x220  sh_read_wk.o [11]
    .text            ro code  0x00015658    0x24c  sh_write_binary.o [11]
    .text            ro code  0x000158a4     0xc8  sh_update.o [11]
    .text            ro code  0x0001596c     0x26  io_spr.o [7]
    .text            ro code  0x00015994     0xfc  sh_df_driver.o [11]
    .text            ro code  0x00015a90    0x110  sh_mkdir.o [11]
    .text            ro code  0x00015ba0    0x39c  sh_search_file_1.o [11]
    .text            ro code  0x00015f3c    0x1f0  xsin.o [5]
    .text            ro code  0x0001612c    0x218  sh_util.o [11]
    .text            ro code  0x00016344    0x408  mfs_misc.o [6]
    .text            ro code  0x0001674c     0x90  io_fseek.o [7]
    .text            ro code  0x000167dc     0x16  io_feof.o [7]
    .text            ro code  0x000167f2     0x46  io_fgetc.o [7]
    .text            ro code  0x00016838    0x320  dir_read.o [6]
    .text            ro code  0x00016b58      0xc  errno.o [4]
    .text            ro code  0x00016b64    0x170  xquad.o [5]
    .text            ro code  0x00016cd4     0x2e  DblCmpGe.o [5]
    .text            ro code  0x00016d04     0x2e  DblCmpLe.o [5]
    .text            ro code  0x00016d32     0x10  sh_util.o [11]
    .text            ro code  0x00016d42    0x344  mfs_rw.o [6]
    .text            ro code  0x00017086     0x9e  mfs_data_sector.o [6]
    .text            ro code  0x00017124    0x382  mfs_fat.o [6]
    .text            ro code  0x000174a6      0x2  xtls.o [4]
    .text            ro code  0x000174a8     0x80  xdint.o [5]
    .text            ro code  0x00017528     0x20  DblCmpEq.o [5]
    .text            ro code  0x00017548    0x1a8  fmod.o [5]
    .text            ro code  0x000176f0     0x6a  io_read.o [7]
    .text            ro code  0x0001775c     0x62  memcmp.o [8]
    .text            ro code  0x000177c0    0x356  mfs_cluster.o [6]
    .text            ro code  0x00017b18      0xc  iarEdom.o [8]
    .text            ro code  0x00017b24     0x48  Shell_Task.o [1]
    .text            ro code  0x00017b6c    0x22c  shell.o [11]
    .text            ro code  0x00017d98     0x38  io_fflsh.o [7]
    .text            ro code  0x00017dd0     0x2e  io_fgets.o [7]
    .text            ro code  0x00017dfe     0x94  io_fgetl.o [7]
    .text            ro code  0x00017e92     0x2c  io_fung.o [7]
    .text            ro code  0x00017ec0    0x2d0  USB_File.o [1]
    .text            ro code  0x00018190    0x726  usbmfs.o [12]
    .text            ro code  0x000188b8    0x5a6  part_mgr.o [6]
    .text            ro code  0x00018e5e      0xe  io_ferr.o [7]
    .text            ro code  0x00018e6c   0x1222  mfs_init.o [6]
    .text            ro code  0x0001a090     0x7c  io_uinst.o [7]
    .text            ro code  0x0001a10c    0xb54  host_common.o [12]
    .text            ro code  0x0001ac60     0x90  usb_host_msd_ufi.o [12]
    .text            ro code  0x0001acf0     0x10  ti_getp.o [7]
    .text            ro code  0x0001ad00     0x98  lws_wati.o [7]
    .text            ro code  0x0001ad98     0x30  ti_delti.o [7]
    .text            ro code  0x0001adc8     0xa2  mfs_valdev.o [6]
    .text            ro code  0x0001ae6c    0x39c  mfs_open.o [6]
    .text            ro code  0x0001b208    0x4bc  mfs_create.o [6]
    .text            ro code  0x0001b6c4    0x2d0  mfs_read.o [6]
    .text            ro code  0x0001b994    0x430  mfs_write.o [6]
    .text            ro code  0x0001bdc4    0x7f8  mfs_directory.o [6]
    .text            ro code  0x0001c5bc     0xf4  mfs_attribute.o [6]
    .text            ro code  0x0001c6b0     0xe4  mfs_time.o [6]
    .text            ro code  0x0001c794    0x7ce  mfs_lfn.o [6]
    .text            ro code  0x0001cf62    0x102  mfs_delete.o [6]
    .text            ro code  0x0001d064    0x2c0  mfs_rename.o [6]
    .text            ro code  0x0001d324    0x89c  mfs_format.o [6]
    .text            ro code  0x0001dbc0     0x10  qu_util.o [7]
    .text            ro code  0x0001dbd0     0x68  usb_mqx.o [12]
    .text            ro code  0x0001dc38    0x3d2  host_dev_list.o [12]
    .text            ro code  0x0001e00c    0x564  host_main.o [12]
    .text            ro code  0x0001e570    0x660  host_ch9.o [12]
    .text            ro code  0x0001ebd0    0x670  usb_host_msd_bo.o [12]
    .text            ro code  0x0001f240     0x36  lws_wain.o [7]
    .text            ro code  0x0001f276    0x79a  mfs_search.o [6]
    .text            ro code  0x0001fa10     0xf6  mfs_handle.o [6]
    .text            ro code  0x0001fb08    0x7f6  mfs_dir_entry.o [6]
    .text            ro code  0x000202fe     0x20  qu_head.o [7]
    .text            ro code  0x0002031e     0x22  qu_next.o [7]
    .text            ro code  0x00020340    0x57c  mfs_parse.o [6]
    .text            ro code  0x000208bc     0x50  host_close.o [12]
    .text            ro code  0x0002090c     0x5a  usb_mk60.o [3]
    .text            ro code  0x00020966     0xa2  usb_host_msd_queue.o [12]
    .text            ro code  0x00020a08     0x58  host_snd.o [12]
    .text            ro code  0x00020a60     0x58  host_rcv.o [12]
    .text            ro code  0x00020ab8     0x30  pa_sallz.o [7]
    .text            ro code  0x00020ae8     0x1e  qu_unlnk.o [7]
    .text            ro code  0x00020b06     0x1e  strcat.o [4]
    .text            ro code  0x00020b24    0x220  USB_Task.o [1]
    .text            ro code  0x00020d44     0x86  lwe_crea.o [7]
    .text            ro code  0x00020dcc     0x20  int_iunx.o [7]
    .text            ro code  0x00020dec     0x34  lwe_clr.o [7]
    .text            ro code  0x00020e20     0x48  lwe_watt.o [7]
    .text            ro code  0x00020e68     0x10  int_idef.o [7]
    .text            ro code  0x00020e78     0xf0  lwe_waii.o [7]
    .text            ro code  0x00020f68    0x16c  mem_flash.o [1]
    .text            ro code  0x000210d4     0x94  pin2.o [1]
    .text            ro code  0x00021168     0xac  tq_tsusp.o [7]
    .text            ro code  0x00021214     0x98  ta_prio.o [7]
    .text            ro code  0x000212ac     0x68  sc_sprio.o [7]
    .text            ro code  0x00021314      0x4  ta_sync.o [7]
    .text            ro code  0x00021318    0x29c  tcpip_socket_task.o [1]
    .text            ro code  0x000215b4    0x1a0  soselset.o [9]
    .text            ro code  0x00021754     0xbc  sosel0.o [9]
    .text            ro code  0x00021810     0xd4  timer.o [9]
    .text            ro code  0x000218e4    0x3dc  yada_prj.o [1]
    .text            ro code  0x00021cc0    0x3ec  timer_lpt.o [3]
    .text            ro code  0x000220ac     0x7c  timer_lpt_kinetis.o [3]
    .text            ro code  0x00022128     0x22  I64Shl.o [8]
    .text            ro code  0x0002214c   0x12f0  ftpd_cmd.o [9]
    .text            ro code  0x0002343c     0x24  ftpd_cmd.o [9]
    .text            ro code  0x00023460      0x4  strpbrk.o [4]
    .text            ro code  0x00023464     0x18  rtcsmsec.o [9]
    .text            ro code  0x0002347c     0x20  io_ftell.o [7]
    .text            ro code  0x0002349c     0x22  strpbrk.o [4]
    .text            ro code  0x000234be     0x1a  ti_elaps.o [7]
    .text            ro code  0x000234d8     0x40  ti_elapt.o [7]
    .text            ro code  0x00023518    0x3be  ip-e.o [9]
    .text            ro code  0x000238d8    0x82c  arp.o [9]
    .text            ro code  0x00024104     0x94  enopen.o [3]
    .text            ro code  0x00024198     0x82  enclose.o [3]
    .text            ro code  0x0002421c     0xdc  rtcsrand.o [9]
    .text            ro code  0x000242f8    0x496  rtcspcb.o [9]
    .text            ro code  0x0002478e    0x162  ensend.o [3]
    .text            ro code  0x000248f0    0x24c  iputil.o [9]
    .text            ro code  0x00024b3c      0x4  proxyarp.o [9]
    .text            ro code  0x00024b40     0x3c  lws_poll.o [7]
    .text            ro code  0x00024b7c    0x24c  ipradix.o [9]
    .text            ro code  0x00024dc8     0x94  sh_cmdlist.o [11]
    .text            ro code  0x00024e5c    0x1f0  sh_copy.o [11]
    .text            ro code  0x0002504c    0x118  sh_create.o [11]
    .text            ro code  0x00025164    0x11c  sh_del.o [11]
    .text            ro code  0x00025280    0x108  sh_df.o [11]
    .text            ro code  0x00025388    0x154  sh_dir.o [11]
    .text            ro code  0x000254dc    0x1bc  sh_disect.o [11]
    .text            ro code  0x00025698     0x68  sh_exit.o [11]
    .text            ro code  0x00025700    0x17c  sh_format.o [11]
    .text            ro code  0x0002587c    0x108  sh_help.o [11]
    .text            ro code  0x00025984    0x22c  sh_read.o [11]
    .text            ro code  0x00025bb0     0x40  io_fputc.o [7]
    .text            ro code  0x00025bf0    0x188  sh_rename.o [11]
    .text            ro code  0x00025d78    0x12c  sh_rmdir.o [11]
    .text            ro code  0x00025ea4     0xd8  sh_sh.o [11]
    .text            ro code  0x00025f7c    0x130  sh_type.o [11]
    .text            ro code  0x000260ac    0x250  sh_write.o [11]
    .text            ro code  0x000262fc    0xa94  khci.o [12]
    .text            ro code  0x00026d90     0x92  lwmsgq.o [7]
    .text            ro code  0x00026e24    0x138  lwmsgq_recv.o [7]
    .text            ro code  0x00026f5c     0x70  ta_creab.o [7]
    .text            ro code  0x00026fcc    0x128  lwmsgq_send.o [7]
    .text            ro code  0x000270f4    0x560  usb_host_hub_sm.o [12]
    .text            ro code  0x00027654    0x3ae  usb_host_hub.o [12]
    .text            ro code  0x00027a04    0x59c  sstream.o [9]
    .text            ro code  0x00027fa0    0x9f6  ip.o [9]
    .text            ro code  0x00028998    0x76c  iproute.o [9]
    .text            ro code  0x00029104     0x86  checksum.o [9]
    .text            ro code  0x0002918a     0x44  ipsum.o [7]
    .text            ro code  0x000291d0    0x680  icmp.o [9]
    .text            ro code  0x00029850     0x22  route.o [9]
    .text            ro code  0x00029874    0x19e  iplocal.o [9]
    .text            ro code  0x00029a14    0x124  tcpip.o [9]
    .text            ro code  0x00029b38     0x16  ms_open.o [7]
    .text            ro code  0x00029b50     0x10  arpinit.o [9]
    .text            ro code  0x00029b60     0x18  bootinit.o [9]
    .text            ro code  0x00029b78     0x32  ms_recv.o [7]
    .text            ro code  0x00029bac    0x144  ms_openi.o [7]
    .text            ro code  0x00029cf0    0x320  ms_recvi.o [7]
    .text            ro code  0x0002a010     0xe8  int_unx.o [7]
    .text            ro code  0x0002a0f8    0x3c4  tcp_clos.o [9]
    .text            ro code  0x0002a4bc    0x792  tcp_rcv.o [9]
    .text            ro code  0x0002ac4e    0x3a2  ticker.o [9]
    .text            ro code  0x0002aff0   0x16e2  tcp.o [9]
    .text            ro code  0x0002c6d2    0x12c  sosel1.o [9]
    .text            ro code  0x0002c800    0xfa8  tcp_send.o [9]
    .text            ro code  0x0002d7a8    0x412  tcp_buf.o [9]
    .text            ro code  0x0002dbbc     0x18  ti_getr.o [7]
    .text            ro code  0x0002dbd4     0x34  int_isr.o [7]
    .text            ro code  0x0002dc08     0x10  td_serrt.o [7]
    .text            ro code  0x0002dc18    0x464  macnet_init.o [3]
    .text            ro code  0x0002e07c     0x1c  macnet_mk60.o [3]
    .text            ro code  0x0002e098    0x49e  macnet_receive.o [3]
    .text            ro code  0x0002e538    0x1d4  macnet_util.o [3]
    .text            ro code  0x0002e70c    0x11a  enrecv.o [3]
    .text            ro code  0x0002e828     0x64  int_gisr.o [7]
    .text            ro code  0x0002e88c    0x1e2  ta_dest.o [7]
    .text            ro code  0x0002ea70     0x6c  lwm_list.o [7]
    .text            ro code  0x0002eadc      0x2  stack_de.o [7]
    .text            ro code  0x0002eae0     0x40  idletask.o [7]
    .text            ro code  0x0002eb20     0x60  ev_tdel.o [7]
    .text            ro code  0x0002eb80     0x88  macnet_join.o [3]
    .text            ro code  0x0002ec08     0xe8  macnet_mii.o [3]
    .text            ro code  0x0002ecf0     0x4c  macnet_stop.o [3]
    .text            ro code  0x0002ed3c     0x24  ta_exit.o [7]
    .text            ro code  0x0002ed60    0x31c  udp.o [9]
    .text            ro code  0x0002f07c    0x4fc  flash_ftfl.o [3]
    .text            ro code  0x0002f578     0x24  flash_mk60.o [3]
    .text            ro code  0x0002f59c     0xd8  ms_tdel.o [7]
    .text            ro code  0x0002f674     0x98  pa_tdel.o [7]
    .text            ro code  0x0002f70c    0x104  soip.o [9]
    .text            ro code  0x0002f810    0x1ba  ipif_add.o [9]
    .text            ro code  0x0002f9ca    0x178  phy_ks8721bl.o [3]
    .text            ro code  0x0002fb42    0x2ba  macnet_send.o [3]
    .text            ro code  0x0002fdfc     0xa0  packbits_init3.o [8]
  KERNEL             ro code  0x0002fea0    0x218  dispatch.o [7]
  .iar.init_table    const    0x000300b8     0x48  - Linker created -
  .rodata            const    0x00030100      0x8  DSPSPI.o [1]
  .rodata            const    0x00030108     0x1c  DSPSPI.o [1]
  .rodata            const    0x00030124     0x24  DSPSPI.o [1]
  .rodata            const    0x00030148     0x24  DSPSPI.o [1]
  .rodata            const    0x0003016c     0x24  DSPSPI.o [1]
  .rodata            const    0x00030190     0x10  DSPSPI.o [1]
  .rodata            const    0x000301a0     0x1c  DSPSPI.o [1]
  .rodata            const    0x000301bc     0x18  DSPSPI.o [1]
  .rodata            const    0x000301d4     0x1c  DSPSPI.o [1]
  .rodata            const    0x000301f0     0x18  DSPSPI.o [1]
  .rodata            const    0x00030208     0x1c  DisTime.o [1]
  .rodata            const    0x00030224      0xc  DisTime.o [1]
  .rodata            const    0x00030230     0x10  DisTime.o [1]
  .rodata            const    0x00030240     0x34  DisTime.o [1]
  .rodata            const    0x00030274     0x38  DisTime.o [1]
  .rodata            const    0x000302ac      0x8  FTP_Task.o [1]
  .rodata            const    0x000302b4      0x8  FTP_Task.o [1]
  .rodata            const    0x000302bc      0x8  FTP_Task.o [1]
  .rodata            const    0x000302c4      0x4  FTP_Task.o [1]
  .rodata            const    0x000302c8      0x8  FTP_Task.o [1]
  .rodata            const    0x000302d0      0x8  FTP_Task.o [1]
  .rodata            const    0x000302d8      0x8  FTP_Task.o [1]
  .rodata            const    0x000302e0      0x8  FTP_Task.o [1]
  .rodata            const    0x000302e8      0x4  FTP_Task.o [1]
  .rodata            const    0x000302ec      0x8  FTP_Task.o [1]
  .rodata            const    0x000302f4      0x8  FTP_Task.o [1]
  .rodata            const    0x000302fc      0x8  FTP_Task.o [1]
  .rodata            const    0x00030304      0x8  FTP_Task.o [1]
  .rodata            const    0x0003030c      0x8  FTP_Task.o [1]
  .rodata            const    0x00030314      0x8  FTP_Task.o [1]
  .rodata            const    0x0003031c      0x4  FTP_Task.o [1]
  .rodata            const    0x00030320      0x8  FTP_Task.o [1]
  .rodata            const    0x00030328      0x8  FTP_Task.o [1]
  .rodata            const    0x00030330      0x8  FTP_Task.o [1]
  .rodata            const    0x00030338      0x8  FTP_Task.o [1]
  .rodata            const    0x00030340      0x8  FTP_Task.o [1]
  .rodata            const    0x00030348      0x4  FTP_Task.o [1]
  .rodata            const    0x0003034c      0x8  FTP_Task.o [1]
  .rodata            const    0x00030354      0x8  FTP_Task.o [1]
  .rodata            const    0x0003035c      0x8  FTP_Task.o [1]
  .rodata            const    0x00030364      0x8  FTP_Task.o [1]
  .rodata            const    0x0003036c      0x8  FTP_Task.o [1]
  .rodata            const    0x00030374      0x8  FTP_Task.o [1]
  .rodata            const    0x0003037c      0x8  FTP_Task.o [1]
  .rodata            const    0x00030384      0x8  FTP_Task.o [1]
  .rodata            const    0x0003038c      0x8  FTP_Task.o [1]
  .rodata            const    0x00030394     0x24  FTP_Task.o [1]
  .rodata            const    0x000303b8     0x24  FTP_Task.o [1]
  .rodata            const    0x000303dc     0x24  FTP_Task.o [1]
  .rodata            const    0x00030400     0x14  FTP_Task.o [1]
  .rodata            const    0x00030414      0xc  FTP_Task.o [1]
  .rodata            const    0x00030420    0x100  FTP_Task.o [1]
  .rodata            const    0x00030520      0x8  LCDDriver.o [1]
  .rodata            const    0x00030528      0x8  LCDUart.o [1]
  .rodata            const    0x00030530      0xc  LCDUart.o [1]
  .rodata            const    0x0003053c     0x28  LCDUart.o [1]
  .rodata            const    0x00030564     0x24  LCDUart.o [1]
  .rodata            const    0x00030588     0x24  LCDUart.o [1]
  .rodata            const    0x000305ac     0x1c  LCDUart.o [1]
  .rodata            const    0x000305c8     0x10  LCDUart.o [1]
  .rodata            const    0x000305d8     0x1c  LCDUart.o [1]
  .rodata            const    0x000305f4     0x18  LCDUart.o [1]
  .rodata            const    0x0003060c      0xc  MenuView.o [1]
  .rodata            const    0x00030618     0x10  MenuView.o [1]
  .rodata            const    0x00030628     0x10  MenuView.o [1]
  .rodata            const    0x00030638     0x14  MenuView.o [1]
  .rodata            const    0x0003064c     0x14  MenuView.o [1]
  .rodata            const    0x00030660     0x38  MenuView.o [1]
  .rodata            const    0x00030698     0x3c  MenuView.o [1]
  .rodata            const    0x000306d4      0x4  MenuView.o [1]
  .rodata            const    0x000306d8      0x8  MenuView.o [1]
  .rodata            const    0x000306e0     0x24  MenuView.o [1]
  .rodata            const    0x00030704     0x48  MenuView.o [1]
  .rodata            const    0x0003074c      0x8  MenuView.o [1]
  .rodata            const    0x00030754      0x8  MenuView.o [1]
  .rodata            const    0x0003075c      0xc  MenuView.o [1]
  .rodata            const    0x00030768      0x8  MenuView.o [1]
  .rodata            const    0x00030770     0x10  MenuView.o [1]
  .rodata            const    0x00030780      0x8  MenuView.o [1]
  .rodata            const    0x00030788      0x8  MenuView.o [1]
  .rodata            const    0x00030790     0x2c  MenuView.o [1]
  .rodata            const    0x000307bc     0x58  MenuView.o [1]
  .rodata            const    0x00030814     0x10  MenuView.o [1]
  .rodata            const    0x00030824     0x10  MenuView.o [1]
  .rodata            const    0x00030834      0xc  MenuView.o [1]
  .rodata            const    0x00030840      0xc  MenuView.o [1]
  .rodata            const    0x0003084c      0xc  MenuView.o [1]
  .rodata            const    0x00030858     0x14  MenuView.o [1]
  .rodata            const    0x0003086c     0x24  MenuView.o [1]
  .rodata            const    0x00030890     0x70  MenuView.o [1]
  .rodata            const    0x00030900     0x38  MenuView.o [1]
  .rodata            const    0x00030938      0xc  MenuView.o [1]
  .rodata            const    0x00030944      0x8  MenuView.o [1]
  .rodata            const    0x0003094c      0xc  MenuView.o [1]
  .rodata            const    0x00030958      0xc  MenuView.o [1]
  .rodata            const    0x00030964      0x8  MenuView.o [1]
  .rodata            const    0x0003096c     0x20  MenuView.o [1]
  .rodata            const    0x0003098c     0x20  MenuView.o [1]
  .rodata            const    0x000309ac     0x24  MenuView.o [1]
  .rodata            const    0x000309d0      0xc  MenuView.o [1]
  .rodata            const    0x000309dc     0x28  MenuView.o [1]
  .rodata            const    0x00030a04      0xc  MenuView.o [1]
  .rodata            const    0x00030a10      0x8  MenuView.o [1]
  .rodata            const    0x00030a18      0x8  MenuView.o [1]
  .rodata            const    0x00030a20      0x8  MenuView.o [1]
  .rodata            const    0x00030a28     0x10  MenuView.o [1]
  .rodata            const    0x00030a38      0xc  MenuView.o [1]
  .rodata            const    0x00030a44      0x8  MenuView.o [1]
  .rodata            const    0x00030a4c      0x8  MenuView.o [1]
  .rodata            const    0x00030a54      0x8  MenuView.o [1]
  .rodata            const    0x00030a5c      0x8  MenuView.o [1]
  .rodata            const    0x00030a64      0xc  MenuView.o [1]
  .rodata            const    0x00030a70      0x8  MenuView.o [1]
  .rodata            const    0x00030a78      0x4  Shell_Task.o [1]
  .rodata            const    0x00030a7c      0x8  Shell_Task.o [1]
  .rodata            const    0x00030a84      0x8  Shell_Task.o [1]
  .rodata            const    0x00030a8c      0x4  Shell_Task.o [1]
  .rodata            const    0x00030a90      0x8  Shell_Task.o [1]
  .rodata            const    0x00030a98      0x4  Shell_Task.o [1]
  .rodata            const    0x00030a9c      0x4  Shell_Task.o [1]
  .rodata            const    0x00030aa0      0x8  Shell_Task.o [1]
  .rodata            const    0x00030aa8      0x8  Shell_Task.o [1]
  .rodata            const    0x00030ab0      0x8  Shell_Task.o [1]
  .rodata            const    0x00030ab8      0x8  Shell_Task.o [1]
  .rodata            const    0x00030ac0      0x4  Shell_Task.o [1]
  .rodata            const    0x00030ac4      0x8  Shell_Task.o [1]
  .rodata            const    0x00030acc      0x4  Shell_Task.o [1]
  .rodata            const    0x00030ad0      0x8  Shell_Task.o [1]
  .rodata            const    0x00030ad8      0x4  Shell_Task.o [1]
  .rodata            const    0x00030adc      0x8  Shell_Task.o [1]
  .rodata            const    0x00030ae4      0x8  Shell_Task.o [1]
  .rodata            const    0x00030aec      0x8  Shell_Task.o [1]
  .rodata            const    0x00030af4      0x8  Shell_Task.o [1]
  .rodata            const    0x00030afc     0x28  Shell_Task.o [1]
  .rodata            const    0x00030b24     0x24  Shell_Task.o [1]
  .rodata            const    0x00030b48     0x24  Shell_Task.o [1]
  .rodata            const    0x00030b6c     0x20  Shell_Task.o [1]
  .rodata            const    0x00030b8c     0xb0  Shell_Task.o [1]
  .rodata            const    0x00030c3c     0x1c  USB_File.o [1]
  .rodata            const    0x00030c58     0x4c  USB_File.o [1]
  .rodata            const    0x00030ca4     0x34  USB_File.o [1]
  .rodata            const    0x00030cd8     0x24  USB_File.o [1]
  .rodata            const    0x00030cfc     0x20  USB_File.o [1]
  .rodata            const    0x00030d1c     0x20  USB_File.o [1]
  .rodata            const    0x00030d3c     0x24  USB_File.o [1]
  .rodata            const    0x00030d60     0x24  USB_File.o [1]
  .rodata            const    0x00030d84     0x2c  USB_File.o [1]
  .rodata            const    0x00030db0     0x24  USB_File.o [1]
  .rodata            const    0x00030dd4     0x20  USB_File.o [1]
  .rodata            const    0x00030df4     0x1c  USB_File.o [1]
  .rodata            const    0x00030e10     0x18  USB_File.o [1]
  .rodata            const    0x00030e28     0x2c  USB_File.o [1]
  .rodata            const    0x00030e54     0x14  USB_File.o [1]
  .rodata            const    0x00030e68     0x24  USB_File.o [1]
  .rodata            const    0x00030e8c     0x18  USB_File.o [1]
  .rodata            const    0x00030ea4     0x28  USB_File.o [1]
  .rodata            const    0x00030ecc     0x18  USB_File.o [1]
  .rodata            const    0x00030ee4     0x2c  USB_File.o [1]
  .rodata            const    0x00030f10     0x18  USB_File.o [1]
  .rodata            const    0x00030f28     0x30  USB_File.o [1]
  .rodata            const    0x00030f58     0x14  USB_File.o [1]
  .rodata            const    0x00030f6c     0x1c  USB_File.o [1]
  .rodata            const    0x00030f88     0x18  USB_File.o [1]
  .rodata            const    0x00030fa0     0x24  USB_Task.o [1]
  .rodata            const    0x00030fc4     0x24  USB_Task.o [1]
  .rodata            const    0x00030fe8     0x24  USB_Task.o [1]
  .rodata            const    0x0003100c      0x8  USB_Task.o [1]
  .rodata            const    0x00031014      0x8  USB_Task.o [1]
  .rodata            const    0x0003101c      0x8  USB_Task.o [1]
  .rodata            const    0x00031024      0x8  USB_Task.o [1]
  .rodata            const    0x0003102c     0x30  USB_Task.o [1]
  .rodata            const    0x0003105c      0x4  mem_flash.o [1]
  .rodata            const    0x00031060      0x8  mem_flash.o [1]
  .rodata            const    0x00031068     0x14  mem_flash.o [1]
  .rodata            const    0x0003107c      0x8  mem_flash.o [1]
  .rodata            const    0x00031084     0x18  mem_flash.o [1]
  .rodata            const    0x0003109c     0x18  mem_flash.o [1]
  .rodata            const    0x000310b4     0x28  mem_flash.o [1]
  .rodata            const    0x000310dc     0x28  mem_flash.o [1]
  .rodata            const    0x00031104     0x1c  mem_flash.o [1]
  .rodata            const    0x00031120     0x20  mem_flash.o [1]
  .rodata            const    0x00031140     0x30  mem_flash.o [1]
  .rodata            const    0x00031170     0x1c  mem_flash.o [1]
  .rodata            const    0x0003118c      0xc  pin2.o [1]
  .rodata            const    0x00031198      0xc  pin2.o [1]
  .rodata            const    0x000311a4      0x8  pin2.o [1]
  .rodata            const    0x000311ac     0x28  sh_cd.o [1]
  .rodata            const    0x000311d4     0x2c  sh_cd.o [1]
  .rodata            const    0x00031200     0x1c  sh_cd.o [1]
  .rodata            const    0x0003121c     0x20  sh_cd.o [1]
  .rodata            const    0x0003123c     0x14  sh_cd.o [1]
  .rodata            const    0x00031250     0x18  sh_cd.o [1]
  .rodata            const    0x00031268     0x34  sh_cd.o [1]
  .rodata            const    0x0003129c     0x28  tcpip_socket_task.o [1]
  .rodata            const    0x000312c4     0x2c  tcpip_socket_task.o [1]
  .rodata            const    0x000312f0     0x1c  tcpip_socket_task.o [1]
  .rodata            const    0x0003130c     0x28  tcpip_socket_task.o [1]
  .rodata            const    0x00031334     0x20  tcpip_socket_task.o [1]
  .rodata            const    0x00031354     0x14  tcpip_socket_task.o [1]
  .rodata            const    0x00031368      0x8  tcpip_socket_task.o [1]
  .rodata            const    0x00031370     0x24  tcpip_socket_task.o [1]
  .rodata            const    0x00031394     0x10  yada_prj.o [1]
  .rodata            const    0x000313a4      0xc  yada_prj.o [1]
  .rodata            const    0x000313b0      0xc  yada_prj.o [1]
  .rodata            const    0x000313bc     0x10  yada_prj.o [1]
  .rodata            const    0x000313cc      0xc  yada_prj.o [1]
  .rodata            const    0x000313d8      0xc  yada_prj.o [1]
  .rodata            const    0x000313e4     0x10  yada_prj.o [1]
  .rodata            const    0x000313f4      0xc  yada_prj.o [1]
  .rodata            const    0x00031400      0xc  yada_prj.o [1]
  .rodata            const    0x0003140c      0xc  yada_prj.o [1]
  .rodata            const    0x00031418     0x20  yada_prj.o [1]
  .rodata            const    0x00031438     0x24  yada_prj.o [1]
  .rodata            const    0x0003145c     0x24  yada_prj.o [1]
  .rodata            const    0x00031480     0x24  yada_prj.o [1]
  .rodata            const    0x000314a4      0x8  yada_prj.o [1]
  .rodata            const    0x000314ac      0x8  yada_prj.o [1]
  .rodata            const    0x000314b4      0xc  yada_prj.o [1]
  .rodata            const    0x000314c0    0x140  yada_prj.o [1]
  .rodata            const    0x00031600     0x18  krtc.o [3]
  .rodata            const    0x00031618     0x18  krtc.o [3]
  .rodata            const    0x00031630      0x4  ftpd_cmd.o [9]
  .rodata            const    0x00031634     0x10  ftpd_cmd.o [9]
  .rodata            const    0x00031644      0x8  ftpd_cmd.o [9]
  .rodata            const    0x0003164c      0xc  ftpd_cmd.o [9]
  .rodata            const    0x00031658     0x14  ftpd_cmd.o [9]
  .rodata            const    0x0003166c      0x8  ftpd_cmd.o [9]
  .rodata            const    0x00031674     0x20  ftpd_cmd.o [9]
  .rodata            const    0x00031694     0x24  ftpd_cmd.o [9]
  .rodata            const    0x000316b8     0x20  ftpd_cmd.o [9]
  .rodata            const    0x000316d8     0x30  ftpd_cmd.o [9]
  .rodata            const    0x00031708     0x28  ftpd_cmd.o [9]
  .rodata            const    0x00031730     0x24  ftpd_cmd.o [9]
  .rodata            const    0x00031754     0x1c  ftpd_cmd.o [9]
  .rodata            const    0x00031770      0x4  ftpd.o [9]
  .rodata            const    0x00031774      0x8  ftpd.o [9]
  .rodata            const    0x0003177c      0xc  ip-e.o [9]
  .rodata            const    0x00031788      0x4  ip-e.o [9]
  .rodata            const    0x0003178c      0x8  rtcscmd.o [9]
  .rodata            const    0x00031794     0x28  sh_df_driver.o [11]
  .rodata            const    0x000317bc     0x14  sh_df_driver.o [11]
  .rodata            const    0x000317d0     0x18  sh_df_driver.o [11]
  .rodata            const    0x000317e8     0x38  sh_df_driver.o [11]
  .rodata            const    0x00031820     0x20  sh_df_driver.o [11]
  .rodata            const    0x00031840     0x28  sh_mkdir.o [11]
  .rodata            const    0x00031868     0x2c  sh_mkdir.o [11]
  .rodata            const    0x00031894     0x20  sh_mkdir.o [11]
  .rodata            const    0x000318b4     0x20  sh_mkdir.o [11]
  .rodata            const    0x000318d4     0x14  sh_mkdir.o [11]
  .rodata            const    0x000318e8     0x18  sh_mkdir.o [11]
  .rodata            const    0x00031900     0x30  sh_mkdir.o [11]
  .rodata            const    0x00031930     0x28  sh_pwd.o [11]
  .rodata            const    0x00031958     0x20  sh_pwd.o [11]
  .rodata            const    0x00031978      0x8  sh_pwd.o [11]
  .rodata            const    0x00031980      0x8  sh_pwd.o [11]
  .rodata            const    0x00031988      0xc  sh_pwd.o [11]
  .rodata            const    0x00031994     0x28  sh_read_wk.o [11]
  .rodata            const    0x000319bc     0x18  sh_read_wk.o [11]
  .rodata            const    0x000319d4     0x20  sh_read_wk.o [11]
  .rodata            const    0x000319f4      0x8  sh_read_wk.o [11]
  .rodata            const    0x000319fc      0x8  sh_read_wk.o [11]
  .rodata            const    0x00031a04     0x1c  sh_read_wk.o [11]
  .rodata            const    0x00031a20     0x1c  sh_read_wk.o [11]
  .rodata            const    0x00031a3c     0x2c  sh_read_wk.o [11]
  .rodata            const    0x00031a68     0x14  sh_read_wk.o [11]
  .rodata            const    0x00031a7c      0x8  sh_read_wk.o [11]
  .rodata            const    0x00031a84     0x20  sh_read_wk.o [11]
  .rodata            const    0x00031aa4     0x20  sh_read_wk.o [11]
  .rodata            const    0x00031ac4     0x30  sh_read_wk.o [11]
  .rodata            const    0x00031af4     0x38  sh_read_wk.o [11]
  .rodata            const    0x00031b2c     0x28  sh_read_wk.o [11]
  .rodata            const    0x00031b54     0x2c  sh_read_wk.o [11]
  .rodata            const    0x00031b80     0x34  sh_read_wk.o [11]
  .rodata            const    0x00031bb4     0x20  sh_read_wk.o [11]
  .rodata            const    0x00031bd4     0x28  sh_search_file_1.o [11]
  .rodata            const    0x00031bfc     0x20  sh_search_file_1.o [11]
  .rodata            const    0x00031c1c     0x14  sh_search_file_1.o [11]
  .rodata            const    0x00031c30     0x14  sh_search_file_1.o [11]
  .rodata            const    0x00031c44     0x20  sh_search_file_1.o [11]
  .rodata            const    0x00031c64     0x24  sh_search_file_1.o [11]
  .rodata            const    0x00031c88     0x24  sh_search_file_1.o [11]
  .rodata            const    0x00031cac     0x14  sh_search_file_1.o [11]
  .rodata            const    0x00031cc0     0x24  sh_search_file_1.o [11]
  .rodata            const    0x00031ce4     0x30  sh_search_file_1.o [11]
  .rodata            const    0x00031d14      0x8  sh_search_file_1.o [11]
  .rodata            const    0x00031d1c      0x8  sh_update.o [11]
  .rodata            const    0x00031d24     0x24  sh_update.o [11]
  .rodata            const    0x00031d48     0x28  sh_update.o [11]
  .rodata            const    0x00031d70     0x28  sh_update.o [11]
  .rodata            const    0x00031d98     0x1c  sh_update.o [11]
  .rodata            const    0x00031db4     0x28  sh_write_binary.o [11]
  .rodata            const    0x00031ddc     0x20  sh_write_binary.o [11]
  .rodata            const    0x00031dfc      0x8  sh_write_binary.o [11]
  .rodata            const    0x00031e04      0x8  sh_write_binary.o [11]
  .rodata            const    0x00031e0c     0x1c  sh_write_binary.o [11]
  .rodata            const    0x00031e28     0x1c  sh_write_binary.o [11]
  .rodata            const    0x00031e44     0x2c  sh_write_binary.o [11]
  .rodata            const    0x00031e70     0x20  sh_write_binary.o [11]
  .rodata            const    0x00031e90     0x20  sh_write_binary.o [11]
  .rodata            const    0x00031eb0     0x38  sh_write_binary.o [11]
  .rodata            const    0x00031ee8     0x3c  sh_write_binary.o [11]
  .rodata            const    0x00031f24     0x28  sh_write_binary.o [11]
  .rodata            const    0x00031f4c     0x2c  sh_write_binary.o [11]
  .rodata            const    0x00031f78     0x34  sh_write_binary.o [11]
  .rodata            const    0x00031fac     0x20  sh_write_binary.o [11]
  .rodata            const    0x00031fcc     0x1c  sh_write_binary.o [11]
  .rodata            const    0x00031fe8     0x10  mfs_misc.o [6]
  .rodata            const    0x00031ff8     0x1c  mfs_misc.o [6]
  .rodata            const    0x00032014     0x14  mfs_misc.o [6]
  .rodata            const    0x00032028     0x14  mfs_misc.o [6]
  .rodata            const    0x0003203c     0x14  mfs_misc.o [6]
  .rodata            const    0x00032050     0x14  mfs_misc.o [6]
  .rodata            const    0x00032064     0x18  mfs_misc.o [6]
  .rodata            const    0x0003207c     0x24  mfs_misc.o [6]
  .rodata            const    0x000320a0     0x24  mfs_misc.o [6]
  .rodata            const    0x000320c4     0x1c  mfs_misc.o [6]
  .rodata            const    0x000320e0     0x14  mfs_misc.o [6]
  .rodata            const    0x000320f4     0x28  mfs_misc.o [6]
  .rodata            const    0x0003211c     0x14  mfs_misc.o [6]
  .rodata            const    0x00032130     0x18  mfs_misc.o [6]
  .rodata            const    0x00032148     0x10  mfs_misc.o [6]
  .rodata            const    0x00032158     0x10  mfs_misc.o [6]
  .rodata            const    0x00032168     0x18  mfs_misc.o [6]
  .rodata            const    0x00032180     0x10  mfs_misc.o [6]
  .rodata            const    0x00032190     0x18  mfs_misc.o [6]
  .rodata            const    0x000321a8     0x18  mfs_misc.o [6]
  .rodata            const    0x000321c0     0x10  mfs_misc.o [6]
  .rodata            const    0x000321d0     0x14  mfs_misc.o [6]
  .rodata            const    0x000321e4      0x8  mfs_misc.o [6]
  .rodata            const    0x000321ec     0x1c  mfs_misc.o [6]
  .rodata            const    0x00032208     0x14  mfs_misc.o [6]
  .rodata            const    0x0003221c     0x1c  mfs_misc.o [6]
  .rodata            const    0x00032238     0x1c  mfs_misc.o [6]
  .rodata            const    0x00032254     0x18  mfs_misc.o [6]
  .rodata            const    0x0003226c     0x20  mfs_misc.o [6]
  .rodata            const    0x0003228c     0x10  mfs_misc.o [6]
  .rodata            const    0x0003229c     0x14  mfs_misc.o [6]
  .rodata            const    0x000322b0     0x1c  mfs_misc.o [6]
  .rodata            const    0x000322cc     0x1c  mfs_misc.o [6]
  .rodata            const    0x000322e8     0x14  mfs_misc.o [6]
  .rodata            const    0x000322fc     0x18  mfs_misc.o [6]
  .rodata            const    0x00032314     0x14  mfs_misc.o [6]
  .rodata            const    0x00032328     0x14  mfs_misc.o [6]
  .rodata            const    0x0003233c     0x14  shell.o [11]
  .rodata            const    0x00032350      0xc  shell.o [11]
  .rodata            const    0x0003235c     0x30  shell.o [11]
  .rodata            const    0x0003238c      0xc  shell.o [11]
  .rodata            const    0x00032398      0x8  shell.o [11]
  .rodata            const    0x000323a0     0x38  shell.o [11]
  .rodata            const    0x000323d8     0x14  shell.o [11]
  .rodata            const    0x000323ec      0x8  sh_cmdlist.o [11]
  .rodata            const    0x000323f4      0xc  sh_cmdlist.o [11]
  .rodata            const    0x00032400     0x28  sh_copy.o [11]
  .rodata            const    0x00032428     0x20  sh_copy.o [11]
  .rodata            const    0x00032448     0x2c  sh_copy.o [11]
  .rodata            const    0x00032474     0x24  sh_copy.o [11]
  .rodata            const    0x00032498     0x2c  sh_copy.o [11]
  .rodata            const    0x000324c4     0x40  sh_copy.o [11]
  .rodata            const    0x00032504     0x18  sh_copy.o [11]
  .rodata            const    0x0003251c     0x1c  sh_copy.o [11]
  .rodata            const    0x00032538     0x24  sh_copy.o [11]
  .rodata            const    0x0003255c     0x20  sh_copy.o [11]
  .rodata            const    0x0003257c     0x28  sh_create.o [11]
  .rodata            const    0x000325a4     0x20  sh_create.o [11]
  .rodata            const    0x000325c4     0x2c  sh_create.o [11]
  .rodata            const    0x000325f0     0x20  sh_create.o [11]
  .rodata            const    0x00032610     0x1c  sh_create.o [11]
  .rodata            const    0x0003262c     0x20  sh_create.o [11]
  .rodata            const    0x0003264c     0x28  sh_create.o [11]
  .rodata            const    0x00032674     0x20  sh_create.o [11]
  .rodata            const    0x00032694     0x28  sh_del.o [11]
  .rodata            const    0x000326bc     0x20  sh_del.o [11]
  .rodata            const    0x000326dc     0x2c  sh_del.o [11]
  .rodata            const    0x00032708     0x18  sh_del.o [11]
  .rodata            const    0x00032720      0xc  sh_del.o [11]
  .rodata            const    0x0003272c     0x14  sh_del.o [11]
  .rodata            const    0x00032740     0x24  sh_del.o [11]
  .rodata            const    0x00032764     0x28  sh_df.o [11]
  .rodata            const    0x0003278c     0x14  sh_df.o [11]
  .rodata            const    0x000327a0     0x18  sh_df.o [11]
  .rodata            const    0x000327b8     0x38  sh_df.o [11]
  .rodata            const    0x000327f0     0x20  sh_df.o [11]
  .rodata            const    0x00032810     0x18  sh_df.o [11]
  .rodata            const    0x00032828     0x20  sh_df.o [11]
  .rodata            const    0x00032848      0x8  sh_df.o [11]
  .rodata            const    0x00032850     0x28  sh_dir.o [11]
  .rodata            const    0x00032878     0x20  sh_dir.o [11]
  .rodata            const    0x00032898     0x14  sh_dir.o [11]
  .rodata            const    0x000328ac     0x24  sh_dir.o [11]
  .rodata            const    0x000328d0     0x24  sh_dir.o [11]
  .rodata            const    0x000328f4     0x1c  sh_dir.o [11]
  .rodata            const    0x00032910     0x24  sh_dir.o [11]
  .rodata            const    0x00032934     0x24  sh_dir.o [11]
  .rodata            const    0x00032958     0x30  sh_dir.o [11]
  .rodata            const    0x00032988     0x28  sh_disect.o [11]
  .rodata            const    0x000329b0     0x18  sh_disect.o [11]
  .rodata            const    0x000329c8     0x20  sh_disect.o [11]
  .rodata            const    0x000329e8     0x28  sh_disect.o [11]
  .rodata            const    0x00032a10     0x24  sh_disect.o [11]
  .rodata            const    0x00032a34     0x10  sh_disect.o [11]
  .rodata            const    0x00032a44      0x8  sh_disect.o [11]
  .rodata            const    0x00032a4c     0x18  sh_disect.o [11]
  .rodata            const    0x00032a64     0x20  sh_disect.o [11]
  .rodata            const    0x00032a84     0x24  sh_disect.o [11]
  .rodata            const    0x00032aa8     0x24  sh_disect.o [11]
  .rodata            const    0x00032acc      0xc  sh_exit.o [11]
  .rodata            const    0x00032ad8      0x8  sh_format.o [11]
  .rodata            const    0x00032ae0      0x4  sh_format.o [11]
  .rodata            const    0x00032ae4      0x4  sh_format.o [11]
  .rodata            const    0x00032ae8      0x4  sh_format.o [11]
  .rodata            const    0x00032aec      0x4  sh_format.o [11]
  .rodata            const    0x00032af0     0x28  sh_format.o [11]
  .rodata            const    0x00032b18     0x24  sh_format.o [11]
  .rodata            const    0x00032b3c     0x10  sh_format.o [11]
  .rodata            const    0x00032b4c     0x20  sh_format.o [11]
  .rodata            const    0x00032b6c     0x2c  sh_format.o [11]
  .rodata            const    0x00032b98      0x8  sh_format.o [11]
  .rodata            const    0x00032ba0     0x20  sh_format.o [11]
  .rodata            const    0x00032bc0     0x28  sh_format.o [11]
  .rodata            const    0x00032be8     0x40  sh_format.o [11]
  .rodata            const    0x00032c28     0x34  sh_format.o [11]
  .rodata            const    0x00032c5c     0x14  sh_format.o [11]
  .rodata            const    0x00032c70      0x8  sh_help.o [11]
  .rodata            const    0x00032c78      0x8  sh_help.o [11]
  .rodata            const    0x00032c80     0x18  sh_help.o [11]
  .rodata            const    0x00032c98      0x8  sh_help.o [11]
  .rodata            const    0x00032ca0     0x28  sh_help.o [11]
  .rodata            const    0x00032cc8     0x10  sh_help.o [11]
  .rodata            const    0x00032cd8     0x18  sh_help.o [11]
  .rodata            const    0x00032cf0     0x28  sh_help.o [11]
  .rodata            const    0x00032d18     0x28  sh_read.o [11]
  .rodata            const    0x00032d40     0x18  sh_read.o [11]
  .rodata            const    0x00032d58     0x20  sh_read.o [11]
  .rodata            const    0x00032d78      0x8  sh_read.o [11]
  .rodata            const    0x00032d80      0x8  sh_read.o [11]
  .rodata            const    0x00032d88     0x1c  sh_read.o [11]
  .rodata            const    0x00032da4     0x1c  sh_read.o [11]
  .rodata            const    0x00032dc0     0x2c  sh_read.o [11]
  .rodata            const    0x00032dec     0x14  sh_read.o [11]
  .rodata            const    0x00032e00      0x8  sh_read.o [11]
  .rodata            const    0x00032e08     0x20  sh_read.o [11]
  .rodata            const    0x00032e28     0x20  sh_read.o [11]
  .rodata            const    0x00032e48     0x30  sh_read.o [11]
  .rodata            const    0x00032e78     0x38  sh_read.o [11]
  .rodata            const    0x00032eb0     0x28  sh_read.o [11]
  .rodata            const    0x00032ed8     0x2c  sh_read.o [11]
  .rodata            const    0x00032f04     0x34  sh_read.o [11]
  .rodata            const    0x00032f38     0x20  sh_read.o [11]
  .rodata            const    0x00032f58     0x28  sh_rename.o [11]
  .rodata            const    0x00032f80     0x2c  sh_rename.o [11]
  .rodata            const    0x00032fac     0x34  sh_rename.o [11]
  .rodata            const    0x00032fe0     0x20  sh_rename.o [11]
  .rodata            const    0x00033000     0x18  sh_rename.o [11]
  .rodata            const    0x00033018     0x1c  sh_rename.o [11]
  .rodata            const    0x00033034     0x20  sh_rename.o [11]
  .rodata            const    0x00033054     0x28  sh_rename.o [11]
  .rodata            const    0x0003307c     0x24  sh_rename.o [11]
  .rodata            const    0x000330a0     0x28  sh_rmdir.o [11]
  .rodata            const    0x000330c8     0x2c  sh_rmdir.o [11]
  .rodata            const    0x000330f4     0x20  sh_rmdir.o [11]
  .rodata            const    0x00033114     0x20  sh_rmdir.o [11]
  .rodata            const    0x00033134     0x14  sh_rmdir.o [11]
  .rodata            const    0x00033148     0x14  sh_rmdir.o [11]
  .rodata            const    0x0003315c     0x18  sh_rmdir.o [11]
  .rodata            const    0x00033174     0x30  sh_rmdir.o [11]
  .rodata            const    0x000331a4     0x28  sh_sh.o [11]
  .rodata            const    0x000331cc     0x20  sh_sh.o [11]
  .rodata            const    0x000331ec     0x10  sh_sh.o [11]
  .rodata            const    0x000331fc     0x18  sh_sh.o [11]
  .rodata            const    0x00033214     0x28  sh_sh.o [11]
  .rodata            const    0x0003323c     0x20  sh_type.o [11]
  .rodata            const    0x0003325c     0x2c  sh_type.o [11]
  .rodata            const    0x00033288     0x20  sh_type.o [11]
  .rodata            const    0x000332a8     0x38  sh_type.o [11]
  .rodata            const    0x000332e0     0x10  sh_type.o [11]
  .rodata            const    0x000332f0     0x18  sh_type.o [11]
  .rodata            const    0x00033308     0x28  sh_type.o [11]
  .rodata            const    0x00033330     0x28  sh_write.o [11]
  .rodata            const    0x00033358     0x20  sh_write.o [11]
  .rodata            const    0x00033378     0x18  sh_write.o [11]
  .rodata            const    0x00033390      0x8  sh_write.o [11]
  .rodata            const    0x00033398      0x8  sh_write.o [11]
  .rodata            const    0x000333a0     0x1c  sh_write.o [11]
  .rodata            const    0x000333bc     0x1c  sh_write.o [11]
  .rodata            const    0x000333d8     0x2c  sh_write.o [11]
  .rodata            const    0x00033404     0x20  sh_write.o [11]
  .rodata            const    0x00033424     0x20  sh_write.o [11]
  .rodata            const    0x00033444     0x30  sh_write.o [11]
  .rodata            const    0x00033474     0x38  sh_write.o [11]
  .rodata            const    0x000334ac     0x28  sh_write.o [11]
  .rodata            const    0x000334d4     0x2c  sh_write.o [11]
  .rodata            const    0x00033500     0x34  sh_write.o [11]
  .rodata            const    0x00033534     0x20  sh_write.o [11]
  .rodata            const    0x00033554     0x20  usbmfs.o [12]
  .rodata            const    0x00033574      0xc  khci.o [12]
  .rodata            const    0x00033580     0x38  khci.o [12]
  .rodata            const    0x000335b8     0x50  host_common.o [12]
  .rodata            const    0x00033608     0x50  usb_mqx.o [12]
  .rodata            const    0x00033658     0x50  host_main.o [12]
  .rodata            const    0x000336a8      0x8  sh_util.o [11]
  .rodata            const    0x000336b0      0x8  sh_util.o [11]
  .rodata            const    0x000336b8     0x3c  sstream.o [9]
  .rodata            const    0x000336f4     0x58  usb_host_hub.o [12]
  .rodata            const    0x0003374c     0x5c  usb_host_msd_bo.o [12]
  .rodata            const    0x000337a8     0x10  timer_lpt.o [3]
  .rodata            const    0x000337b8      0xc  timer_lpt.o [3]
  .rodata            const    0x000337c4     0x18  mqx.o [7]
  .rodata            const    0x000337dc      0xc  mqx.o [7]
  .rodata            const    0x000337e8      0x4  mqx.o [7]
  .rodata            const    0x000337ec      0x4  mqx.o [7]
  .rodata            const    0x000337f0     0x14  io_dopr.o [7]
  .rodata            const    0x00033804     0x14  io_dopr.o [7]
  .rodata            const    0x00033818     0x1c  ti_rom.o [7]
  .rodata            const    0x00033834     0x68  ti_rom.o [7]
  .rodata            const    0x0003389c    0x20c  ti_rom.o [7]
  .rodata            const    0x00033aa8      0x8  init_enet.o [3]
  .rodata            const    0x00033ab0     0x10  init_enet.o [3]
  .rodata            const    0x00033ac0     0x24  init_enet.o [3]
  .rodata            const    0x00033ae4      0x8  init_enet.o [3]
  .rodata            const    0x00033aec      0x8  sotcp.o [9]
  .rodata            const    0x00033af4      0x4  dir_read.o [6]
  .rodata            const    0x00033af8      0x4  dir_read.o [6]
  .rodata            const    0x00033afc      0x4  dir_read.o [6]
  .rodata            const    0x00033b00      0x4  dir_read.o [6]
  .rodata            const    0x00033b04      0x4  dir_read.o [6]
  .rodata            const    0x00033b08      0x4  dir_read.o [6]
  .rodata            const    0x00033b0c      0x4  dir_read.o [6]
  .rodata            const    0x00033b10      0x4  dir_read.o [6]
  .rodata            const    0x00033b14      0x4  dir_read.o [6]
  .rodata            const    0x00033b18      0x4  dir_read.o [6]
  .rodata            const    0x00033b1c      0x4  dir_read.o [6]
  .rodata            const    0x00033b20      0x4  dir_read.o [6]
  .rodata            const    0x00033b24     0x40  dir_read.o [6]
  .rodata            const    0x00033b64     0x14  dir_read.o [6]
  .rodata            const    0x00033b78     0x10  dir_read.o [6]
  .rodata            const    0x00033b88      0xc  dir_read.o [6]
  .rodata            const    0x00033b94      0xc  dir_read.o [6]
  .rodata            const    0x00033ba0      0x8  dir_read.o [6]
  .rodata            const    0x00033ba8      0x8  dir_read.o [6]
  .rodata            const    0x00033bb0     0x30  dir_read.o [6]
  .rodata            const    0x00033be0     0x18  ftpd_msg.o [9]
  .rodata            const    0x00033bf8     0x1c  ftpd_msg.o [9]
  .rodata            const    0x00033c14     0x34  ftpd_msg.o [9]
  .rodata            const    0x00033c48     0x30  ftpd_msg.o [9]
  .rodata            const    0x00033c78     0x10  ftpd_msg.o [9]
  .rodata            const    0x00033c88     0x14  ftpd_msg.o [9]
  .rodata            const    0x00033c9c     0x14  ftpd_msg.o [9]
  .rodata            const    0x00033cb0     0x18  ftpd_msg.o [9]
  .rodata            const    0x00033cc8     0x18  ftpd_msg.o [9]
  .rodata            const    0x00033ce0     0x20  ftpd_msg.o [9]
  .rodata            const    0x00033d00     0x18  ftpd_msg.o [9]
  .rodata            const    0x00033d18     0x10  ftpd_msg.o [9]
  .rodata            const    0x00033d28     0x3c  ftpd_msg.o [9]
  .rodata            const    0x00033d64     0x38  ftpd_msg.o [9]
  .rodata            const    0x00033d9c     0x30  ftpd_msg.o [9]
  .rodata            const    0x00033dcc     0x1c  ftpd_msg.o [9]
  .rodata            const    0x00033de8      0xc  ftpd_msg.o [9]
  .rodata            const    0x00033df4     0x30  ftpd_msg.o [9]
  .rodata            const    0x00033e24     0x30  ftpd_msg.o [9]
  .rodata            const    0x00033e54     0x20  ftpd_msg.o [9]
  .rodata            const    0x00033e74     0x20  ftpd_msg.o [9]
  .rodata            const    0x00033e94     0x1c  ftpd_msg.o [9]
  .rodata            const    0x00033eb0      0xc  ftpd_msg.o [9]
  .rodata            const    0x00033ebc     0x14  ftpd_msg.o [9]
  .rodata            const    0x00033ed0     0x14  ftpd_msg.o [9]
  .rodata            const    0x00033ee4     0x14  ftpd_msg.o [9]
  .rodata            const    0x00033ef8     0x34  ftpd_msg.o [9]
  .rodata            const    0x00033f2c     0x20  ftpd_msg.o [9]
  .rodata            const    0x00033f4c     0x1c  ftpd_msg.o [9]
  .rodata            const    0x00033f68     0x20  ftpd_msg.o [9]
  .rodata            const    0x00033f88     0x38  ftpd_msg.o [9]
  .rodata            const    0x00033fc0      0x8  soip.o [9]
  .rodata            const    0x00033fc8     0x14  mfs_create.o [6]
  .rodata            const    0x00033fdc     0x14  mfs_create.o [6]
  .rodata            const    0x00033ff0     0x14  mfs_format.o [6]
  .rodata            const    0x00034004     0x14  mfs_format.o [6]
  .rodata            const    0x00034018     0x14  mfs_format.o [6]
  .rodata            const    0x0003402c     0x30  mfs_format.o [6]
  .rodata            const    0x0003405c      0x8  mfs_lfn.o [6]
  .rodata            const    0x00034064      0xc  mfs_lfn.o [6]
  .rodata            const    0x00034070     0x54  host_dev_list.o [12]
  .rodata            const    0x000340c4     0x24  host_dev_list.o [12]
  .rodata            const    0x000340e8     0x20  int_unx.o [7]
  .rodata            const    0x00034108     0x30  int_unx.o [7]
  .rodata            const    0x00034138     0x3c  int_unx.o [7]
  .rodata            const    0x00034174     0x14  int_unx.o [7]
  .rodata            const    0x00034188     0x28  int_unx.o [7]
  .rodata            const    0x000341b0     0x50  host_ch9.o [12]
  .rodata            const    0x00034200      0x8  host_ch9.o [12]
  .rodata            const    0x00034208     0x50  host_rcv.o [12]
  .rodata            const    0x00034258     0x50  host_snd.o [12]
  .rodata            const    0x000342a8      0x4  timer_lpt_kinetis.o [3]
  .rodata            const    0x000342ac      0x4  timer_lpt_kinetis.o [3]
  .rodata            const    0x000342b0      0x4  timer_lpt_kinetis.o [3]
  .rodata            const    0x000342b4      0x8  init_bsp.o [3]
  .rodata            const    0x000342bc      0x8  init_bsp.o [3]
  .rodata            const    0x000342c4      0x8  init_bsp.o [3]
  .rodata            const    0x000342cc      0x8  init_bsp.o [3]
  .rodata            const    0x000342d4      0x8  init_bsp.o [3]
  .rodata            const    0x000342dc      0x8  init_bsp.o [3]
  .rodata            const    0x000342e4      0x8  init_bsp.o [3]
  .rodata            const    0x000342ec      0x8  init_bsp.o [3]
  .rodata            const    0x000342f4      0x8  init_bsp.o [3]
  .rodata            const    0x000342fc      0x8  init_bsp.o [3]
  .rodata            const    0x00034304      0x8  init_bsp.o [3]
  .rodata            const    0x0003430c      0x8  init_bsp.o [3]
  .rodata            const    0x00034314      0x8  init_bsp.o [3]
  .rodata            const    0x0003431c      0x8  init_bsp.o [3]
  .rodata            const    0x00034324      0x8  init_bsp.o [3]
  .rodata            const    0x0003432c      0x8  init_bsp.o [3]
  .rodata            const    0x00034334      0x8  init_bsp.o [3]
  .rodata            const    0x0003433c      0x8  init_bsp.o [3]
  .rodata            const    0x00034344      0x8  init_bsp.o [3]
  .rodata            const    0x0003434c      0x8  init_bsp.o [3]
  .rodata            const    0x00034354      0x8  init_bsp.o [3]
  .rodata            const    0x0003435c      0x8  init_bsp.o [3]
  .rodata            const    0x00034364      0x8  init_bsp.o [3]
  .rodata            const    0x0003436c      0x8  init_bsp.o [3]
  .rodata            const    0x00034374     0x10  mqxiinit.o [7]
  .rodata            const    0x00034384     0x20  macnet_init.o [3]
  .rodata            const    0x000343a4     0x14  phy_ks8721bl.o [3]
  .rodata            const    0x000343b8      0xc  iplocal.o [9]
  .rodata            const    0x000343c4      0x4  iplocal.o [9]
  .rodata            const    0x000343c8      0xc  rtcsinit.o [9]
  .rodata            const    0x000343d4     0x1c  init_gpio.o [3]
  .rodata            const    0x000343f0     0x1c  init_gpio.o [3]
  .rodata            const    0x0003440c      0x4  init_gpio.o [3]
  .rodata            const    0x00034410     0x50  host_close.o [12]
  .rodata            const    0x00034460     0x1c  bsp_cm.o [3]
  .rodata            const    0x0003447c     0x78  bsp_cm.o [3]
  .rodata            const    0x000344f4     0x10  init_adc.o [3]
  .rodata            const    0x00034504     0x18  init_adc.o [3]
  .rodata            const    0x0003451c     0x30  init_spi.o [3]
  .rodata            const    0x0003454c     0x30  init_spi.o [3]
  .rodata            const    0x0003457c     0x30  init_spi.o [3]
  .rodata            const    0x000345ac      0xc  init_esdhc.o [3]
  .rodata            const    0x000345b8      0x8  init_flashx.o [3]
  .rodata            const    0x000345c0      0x8  init_flashx.o [3]
  .rodata            const    0x000345c8     0x30  init_flashx.o [3]
  .rodata            const    0x000345f8     0x20  init_flashx.o [3]
  .rodata            const    0x00034618     0x14  init_i2c.o [3]
  .rodata            const    0x0003462c     0x20  init_sci.o [3]
  .rodata            const    0x0003464c     0x20  init_sci.o [3]
  .rodata            const    0x0003466c     0x20  init_sci.o [3]
  .rodata            const    0x0003468c     0x20  init_sci.o [3]
  .rodata            const    0x000346ac     0x20  init_sci.o [3]
  .rodata            const    0x000346cc     0x20  init_sci.o [3]
  .rodata            const    0x000346ec     0x1c  spi_dma_dspi.o [3]
  .rodata            const    0x00034708     0x40  spi_dma_dspi.o [3]
  .rodata            const    0x00034748     0x10  spi_pol_dspi.o [3]
  .rodata            const    0x00034758     0x40  spi_pol_dspi.o [3]
  .rodata            const    0x00034798     0x10  spi_pol_dspi.o [3]
  .rodata            const    0x000347a8    0x100  esdhc.o [3]
  .rodata            const    0x000348a8      0xc  i2c_pol_ki2c.o [3]
  .rodata            const    0x000348b4    0x100  i2c_pol_ki2c.o [3]
  .rodata            const    0x000349b4      0xc  serl_int_kuart.o [3]
  .rodata            const    0x000349c0     0x40  macnet_mk60.o [3]
  .rodata            const    0x00034a00     0x30  flash_ftfl.o [3]
  .rodata            const    0x00034a30     0x20  flash_ftfl.o [3]
  .rodata            const    0x00034a50      0xc  spi_mk60_dspi.o [3]
  .rodata            const    0x00034a5c      0xc  spi_mk60_dspi.o [3]
  .rodata            const    0x00034a68     0x20  adc_kadc.o [3]
  .rodata            const    0x00034a88      0xc  io_gpio_kgpio.o [3]
  .rodata            const    0x00034a94      0xc  io_gpio_kgpio.o [3]
  .rodata            const    0x00034aa0      0xc  io_gpio_kgpio.o [3]
  .rodata            const    0x00034aac      0xc  io_gpio_kgpio.o [3]
  .rodata            const    0x00034ab8     0x14  io_gpio_kgpio.o [3]
  .rodata            const    0x00034acc     0x14  io_gpio_kgpio.o [3]
  .rodata            const    0x00034ae0      0x8  io_gpio_kgpio.o [3]
  .rodata            const    0x00034ae8      0x8  io_gpio_kgpio.o [3]
  .rodata            const    0x00034af0      0x8  adc_mk60.o [3]
  .rodata            const    0x00034af8      0x8  mqx_init.o [3]
  .rodata            const    0x00034b00     0x30  mqx_init.o [3]
  .rodata            const    0x00034b30      0x2  Shell_Task.o [1]
  .rodata            const    0x00034b32      0x1  init_flashx.o [3]
  .rodata            const    0x00034b33      0x0  bwt_init3c.o [8]
  Initializer bytes  ro data  0x00034b33     0xc0  <for P2 mid-1>
  Initializer bytes  ro data  0x00034bf3      0x2  <for KERNEL_DATA-1>
  FLASHX_POOL                 0x00035000      0x1  <Block>
    .flashx          const    0x00035000      0x1  vectors.o [3]
    .flashx          const    0x00035001      0x0  vectors.o [3]
                            - 0x00035001  0x34be1

"P2":                                      0x5fe4
  P2 mid-1                    0x1fff0000    0x17c  <Init block>
    .data            inited   0x1fff0000      0x2  DSPSPI.o [1]
    .data            inited   0x1fff0002      0x1  DisTime.o [1]
    .data            inited   0x1fff0004      0x4  FTP_Task.o [1]
    .data            inited   0x1fff0008      0x1  MenuView.o [1]
    .data            inited   0x1fff000c     0x28  MenuView.o [1]
    .data            inited   0x1fff0034     0x54  MenuView.o [1]
    .data            inited   0x1fff0088     0x54  MenuView.o [1]
    .data            inited   0x1fff00dc      0xc  MenuView.o [1]
    .data            inited   0x1fff00e8      0x8  MenuView.o [1]
    .data            inited   0x1fff00f0      0x4  MenuView.o [1]
    .data            inited   0x1fff00f4      0xc  MenuView.o [1]
    .data            inited   0x1fff0100      0x8  MenuView.o [1]
    .data            inited   0x1fff0108     0x24  usb_classes.o [1]
    .data            inited   0x1fff012c      0x8  yada_prj.o [1]
    .data            inited   0x1fff0134      0x2  ftpd_cmd.o [9]
    .data            inited   0x1fff0138      0x4  ftpd.o [9]
    .data            inited   0x1fff013c      0x4  ftpd.o [9]
    .data            inited   0x1fff0140      0x4  rtcsglob.o [9]
    .data            inited   0x1fff0144      0x4  rtcsglob.o [9]
    .data            inited   0x1fff0148      0x4  rtcsglob.o [9]
    .data            inited   0x1fff014c      0x4  rtcsglob.o [9]
    .data            inited   0x1fff0150      0x4  rtcsglob.o [9]
    .data            inited   0x1fff0154      0x4  rtcsglob.o [9]
    .data            inited   0x1fff0158      0x4  rtcsglob.o [9]
    .data            inited   0x1fff015c      0x4  rtcsglob.o [9]
    .data            inited   0x1fff0160      0x4  rtcsglob.o [9]
    .data            inited   0x1fff0164      0x4  rtcsglob.o [9]
    .data            inited   0x1fff0168      0x4  mfs_init.o [6]
    .data            inited   0x1fff016c      0x4  mfs_init.o [6]
    .data            inited   0x1fff0170      0x4  mqx.o [7]
    .data            inited   0x1fff0174      0x4  rtcsrand.o [9]
    .data            inited   0x1fff0178      0x4  adt_kpdb.o [3]
  USB_BDT_Z          zero     0x1fff0200    0x200  khci.o [12]
  .bss               zero     0x1fff0400   0x1820  DSPSPI.o [1]
  .bss               zero     0x1fff1c20    0x9e4  DSPSPI.o [1]
  .bss               zero     0x1fff2604   0x1804  DSPSPI.o [1]
  .bss               zero     0x1fff3e08      0x8  DSPSPI.o [1]
  .bss               zero     0x1fff3e10      0x4  DSPSPI.o [1]
  .bss               zero     0x1fff3e14      0x4  LCDDriver.o [1]
  .bss               zero     0x1fff3e18     0x18  LCDUart.o [1]
  .bss               zero     0x1fff3e30     0x38  MenuView.o [1]
  .bss               zero     0x1fff3e68     0x14  MenuView.o [1]
  .bss               zero     0x1fff3e7c    0x190  MenuView.o [1]
  .bss               zero     0x1fff400c      0x8  MenuView.o [1]
  .bss               zero     0x1fff4014   0x1800  MenuView.o [1]
  .bss               zero     0x1fff5814    0x600  MenuView.o [1]
  .bss               zero     0x1fff5e14      0xc  MenuView.o [1]
  .bss               zero     0x1fff5e20      0xc  MenuView.o [1]
  .bss               zero     0x1fff5e2c     0x24  USB_Task.o [1]
  .bss               zero     0x1fff5e50     0x1c  USB_Task.o [1]
  .bss               zero     0x1fff5e6c      0x4  USB_Task.o [1]
  .bss               zero     0x1fff5e70     0x20  USB_Task.o [1]
  .bss               zero     0x1fff5e90      0x4  krtc.o [3]
  .bss               zero     0x1fff5e94      0x4  krtc.o [3]
  .bss               zero     0x1fff5e98      0x4  krtc.o [3]
  .bss               zero     0x1fff5e9c      0x4  krtc.o [3]
  .bss               zero     0x1fff5ea0      0x4  ftpd.o [9]
  .bss               zero     0x1fff5ea4      0x4  rtcsglob.o [9]
  .bss               zero     0x1fff5ea8      0x4  rtcsglob.o [9]
  .bss               zero     0x1fff5eac      0x4  rtcsglob.o [9]
  .bss               zero     0x1fff5eb0      0x4  rtcsglob.o [9]
  .bss               zero     0x1fff5eb4      0x4  rtcsglob.o [9]
  .bss               zero     0x1fff5eb8      0x4  rtcsglob.o [9]
  .bss               zero     0x1fff5ebc      0x4  rtcsglob.o [9]
  .bss               zero     0x1fff5ec0      0x4  rtcsglob.o [9]
  .bss               zero     0x1fff5ec4      0x4  rtcsglob.o [9]
  .bss               zero     0x1fff5ec8      0x4  mfs_init.o [6]
  .bss               zero     0x1fff5ecc      0x4  mfs_init.o [6]
  .bss               zero     0x1fff5ed0      0x4  host_common.o [12]
  .bss               zero     0x1fff5ed4      0x4  host_common.o [12]
  .bss               zero     0x1fff5ed8      0x4  host_main.o [12]
  .bss               zero     0x1fff5edc     0x30  io_util.o [7]
  .bss               zero     0x1fff5f0c      0x4  usb_host_hub.o [12]
  .bss               zero     0x1fff5f10      0x4  usb_host_msd_bo.o [12]
  .bss               zero     0x1fff5f14      0x4  mqx.o [7]
  .bss               zero     0x1fff5f18      0x4  psp_mstiq.o [7]
  .bss               zero     0x1fff5f1c      0x4  psp_mstiq.o [7]
  .bss               zero     0x1fff5f20      0x4  rtcsrand.o [9]
  .bss               zero     0x1fff5f24      0x4  rtcsrand.o [9]
  .bss               zero     0x1fff5f28      0x4  tcpip.o [9]
  .bss               zero     0x1fff5f2c      0x4  arpinit.o [9]
  .bss               zero     0x1fff5f30      0x4  timer.o [9]
  .bss               zero     0x1fff5f34      0x4  bootinit.o [9]
  .bss               zero     0x1fff5f38      0x4  bootinit.o [9]
  .bss               zero     0x1fff5f3c      0x4  io_gpio.o [3]
  .bss               zero     0x1fff5f40     0x14  adc_kadc.o [3]
  .bss               zero     0x1fff5f54      0x4  adc_kadc.o [3]
  .bss               zero     0x1fff5f58     0x24  adt_kpdb.o [3]
  .bss               zero     0x1fff5f7c     0x14  io_gpio_kgpio.o [3]
  .bss               zero     0x1fff5f90     0x14  io_gpio_kgpio.o [3]
  __DLIB_PERTHREAD   zero     0x1fff5fa4      0x4  errno.o [4]
  .bss               zero     0x1fff5fa8      0x2  MenuView.o [1]
  .bss               zero     0x1fff5faa      0x2  MenuView.o [1]
  .bss               zero     0x1fff5fac      0x2  MenuView.o [1]
  .bss               zero     0x1fff5fae      0x1  DSPSPI.o [1]
  .bss               zero     0x1fff5faf      0x1  DSPSPI.o [1]
  .bss               zero     0x1fff5fb0      0x1  DSPSPI.o [1]
  .bss               zero     0x1fff5fb1      0x1  DSPSPI.o [1]
  .bss               zero     0x1fff5fb2      0x1  DisTime.o [1]
  .bss               zero     0x1fff5fb3      0x1  LCDUart.o [1]
  .bss               zero     0x1fff5fb4      0x1  LCDUart.o [1]
  .bss               zero     0x1fff5fb5      0x1  LCDUart.o [1]
  .bss               zero     0x1fff5fb6      0x1  LCDUart.o [1]
  .bss               zero     0x1fff5fb7      0x1  LCDUart.o [1]
  .bss               zero     0x1fff5fb8      0x1  LCDUart.o [1]
  .bss               zero     0x1fff5fb9      0x1  LCDUart.o [1]
  .bss               zero     0x1fff5fba      0x1  LCDUart.o [1]
  .bss               zero     0x1fff5fbb      0x1  LCDUart.o [1]
  .bss               zero     0x1fff5fbc      0x1  LCDUart.o [1]
  .bss               zero     0x1fff5fbd      0x1  LCDUart.o [1]
  .bss               zero     0x1fff5fbe      0x1  LCDUart.o [1]
  .bss               zero     0x1fff5fbf      0x1  LCDUart.o [1]
  .bss               zero     0x1fff5fc0      0x1  LCDUart.o [1]
  .bss               zero     0x1fff5fc1      0x1  LCDUart.o [1]
  .bss               zero     0x1fff5fc2      0x1  LCDUart.o [1]
  .bss               zero     0x1fff5fc3      0x1  LCDUart.o [1]
  .bss               zero     0x1fff5fc4      0x1  LCDUart.o [1]
  .bss               zero     0x1fff5fc5      0x1  LCDUart.o [1]
  .bss               zero     0x1fff5fc6      0x1  LCDUart.o [1]
  .bss               zero     0x1fff5fc7      0x1  LCDUart.o [1]
  .bss               zero     0x1fff5fc8      0x1  LCDUart.o [1]
  .bss               zero     0x1fff5fc9      0x1  MenuView.o [1]
  .bss               zero     0x1fff5fca      0x1  MenuView.o [1]
  .bss               zero     0x1fff5fcb      0x1  MenuView.o [1]
  .bss               zero     0x1fff5fcc      0x1  MenuView.o [1]
  .bss               zero     0x1fff5fcd      0x1  MenuView.o [1]
  .bss               zero     0x1fff5fce      0x1  MenuView.o [1]
  .bss               zero     0x1fff5fcf      0x1  MenuView.o [1]
  .bss               zero     0x1fff5fd0      0x1  pin2.o [1]
  .bss               zero     0x1fff5fd1      0x1  yada_prj.o [1]
  .bss               zero     0x1fff5fd2      0x1  yada_prj.o [1]
  .bss               zero     0x1fff5fd3      0x1  yada_prj.o [1]
  .bss               zero     0x1fff5fd4      0x1  bsp_cm.o [3]
  .bss               zero     0x1fff5fd5      0x1  serl_int_kuart.o [3]
  .bss               zero     0x1fff5fd6      0x1  serl_int_kuart.o [3]
  KERNEL_DATA                 0x1fff5fe0      0x4  <Block>
    KERNEL_DATA-1             0x1fff5fe0      0x4  <Init block>
      .kernel_data   inited   0x1fff5fe0      0x4  kernel_data.o [3]
                            - 0x1fff5fe4   0x5fe4


*******************************************************************************
*** INIT TABLE
***

          Address     Size
          -------     ----
Zero (__iar_zero_init3)
    1 destination range, total size 0x5dd7:
          0x1fff0200  0x5dd7

Copy/packbits (__iar_packbits_init3)
    1 source range, total size 0xc0 (50% of destination):
          0x00034b33    0xc0
    1 destination range, total size 0x17c:
          0x1fff0000   0x17c

Copy/packbits (__iar_packbits_init3)
    1 source range, total size 0x2 (50% of destination):
          0x00034bf3     0x2
    1 destination range, total size 0x4:
          0x1fff5fe0     0x4



*******************************************************************************
*** MODULE SUMMARY
***

    Module                ro code  ro data  rw data
    ------                -------  -------  -------
L:\git_workspace\YD_PRJ_NEW_20130323_git_\IAR\twrk60n512\Int Flash Debug\Obj: [1]
    DSPSPI.o                  708      265   14 874
    DataConvert.o           1 168
    DisTime.o                 932      164        2
    FTP_Task.o                236      631        4
    LCDDriver.o               900        8        4
    LCDUart.o               2 736      228       46
    MenuView.o             15 352    1 261    8 454
    Shell_Task.o               72      454
    System.o                   82
    USB_File.o                720      868
    USB_Task.o                544      188      100
    mem_flash.o               364      304
    pin2.o                    148       32        1
    sh_cd.o                   332      240
    tcpip_socket_task.o       668      248
    usb_classes.o                       18       36
    yada_prj.o                988      624       11
    -----------------------------------------------
    Total:                 25 950    5 533   23 532

command line: [2]
    -----------------------------------------------
    Total:

bsp_twrk60n512_130418_SPI_TX_56Data_Buf6175_RTC.a: [3]
    adc.o                   1 454
    adc_kadc.o              2 752       32       24
    adc_mk60.o                 20        8
    adt_kpdb.o              2 808        3       40
    bsp_cm.o                1 948      148        1
    cm.o                       20
    enaddr.o                   36
    enclose.o                 130
    eninit.o                  260
    enopen.o                  148
    enrecv.o                  282
    ensend.o                  354
    enutil.o                   88
    esdhc.o                 3 204      256
    esdhc_mk60.o               20
    flash_ftfl.o            1 276       80
    flash_mk60.o               36
    flashx.o                3 388
    i2c_int.o                 364
    i2c_int_ki2c.o          1 706
    i2c_mk60.o                 56
    i2c_pol.o                 368
    i2c_pol_ki2c.o          2 156      268
    iar.o                      10
    init_adc.o                          40
    init_bsp.o                732      192
    init_enet.o                44       68
    init_esdhc.o                        12
    init_flashx.o                       97
    init_gpio.o             1 356       60
    init_hw.o                 400
    init_i2c.o                          20
    init_sci.o                         192
    init_spi.o                         144
    io_gpio.o                 652                 4
    io_gpio_kgpio.o         2 452      104       40
    io_sinit.o                 52
    kernel_data.o                        2        4
    krtc.o                    732       48       16
    macnet_init.o           1 124       32
    macnet_join.o             136
    macnet_mii.o              232
    macnet_mk60.o              28       64
    macnet_receive.o        1 182
    macnet_rejoin.o            86
    macnet_send.o             698
    macnet_stop.o              76
    macnet_util.o             468
    mqx_init.o                          56
    mqx_main.o                 16
    phy_ks8721bl.o            376       20
    serl_int.o              1 552
    serl_int_kuart.o          496       12        2
    serl_mk60.o                76
    serl_pol.o              1 340
    serl_pol_kuart.o          948
    spi_dma_dspi.o          1 952       92
    spi_int.o                 418
    spi_mk60_dspi.o            48       24
    spi_pol.o                 406
    spi_pol_dspi.o          2 536       96
    timer_lpt.o             1 004       28
    timer_lpt_kinetis.o       124       12
    usb_mk60.o                 90
    vectors.o                        1 041
    -----------------------------------------------
    Total:                 44 716    3 251      131

dl7M_tln.a: [4]
    abs.o                       8
    errno.o                    12                 4
    exit.o                      4
    strcat.o                   30
    strncmp.o                  42
    strpbrk.o                  38
    xtls.o                      2
    -----------------------------------------------
    Total:                    136                 4

m7M_tl.a: [5]
    DblAdd.o                  232
    DblCmpEq.o                 32
    DblCmpGe.o                 46
    DblCmpLe.o                 46
    DblDiv.o                  582
    DblMul.o                  418
    DblSub.o                  384
    DblToFlt.o                144
    DblToI32.o                 76
    FltAdd.o                  132
    FltCmpGe.o                 36
    FltCmpLe.o                 36
    FltDiv.o                  252
    FltMul.o                  216
    FltSub.o                  230
    FltToDbl.o                 78
    FltToS32.o                 68
    FltToU32.o                 36
    I32ToDbl.o                 48
    I32ToFlt.o                 50
    cos.o                       6
    fmod.o                    424
    sin.o                       6
    xdint.o                   128
    xquad.o                   368
    xsin.o                    496
    -----------------------------------------------
    Total:                  4 570

mfs_twrk60n512_d.a: [6]
    dir_read.o                800      236
    mfs_attribute.o           244
    mfs_cluster.o             854
    mfs_create.o            1 212       40
    mfs_data_sector.o         158
    mfs_delete.o              258
    mfs_dir_entry.o         2 038
    mfs_directory.o         2 040
    mfs_fat.o                 898
    mfs_format.o            2 204      108
    mfs_handle.o              246
    mfs_init.o              4 642        4       16
    mfs_lfn.o               1 998       20
    mfs_misc.o              1 032      852
    mfs_open.o                924
    mfs_parse.o             1 404
    mfs_read.o                720
    mfs_rename.o              704
    mfs_rw.o                  836
    mfs_search.o            1 946
    mfs_time.o                228
    mfs_valdev.o              162
    mfs_write.o             1 072
    part_mgr.o              1 446
    -----------------------------------------------
    Total:                 28 066    1 260       16

psp_twrk60n512_d.a: [7]
    cortex.o                  160
    cortex_boot.o              76
    dispatch.o                536
    ev_all.o                   58
    ev_clear.o                 72
    ev_comp.o                 204
    ev_creaa.o                 20
    ev_creai.o                192
    ev_creat.o                 20
    ev_open.o                 240
    ev_set.o                  224
    ev_tdel.o                  96
    ev_waiti.o                264
    idletask.o                 64
    int_disa.o                 36
    int_ena.o                  56
    int_gdat.o                 96
    int_geh.o                   4
    int_gisr.o                100
    int_idef.o                 16
    int_iisr.o                176
    int_init.o                120
    int_inst.o                 16
    int_isr.o                  52
    int_iunx.o                 32
    int_unx.o                 232      200
    int_vtab.o                 16
    io_dopr.o               3 028       40
    io_fclos.o                 52
    io_feof.o                  22
    io_ferr.o                  14
    io_fflsh.o                 56
    io_fgetc.o                 70
    io_fgetl.o                148
    io_fgets.o                 46
    io_fopen.o                160
    io_fputc.o                 64
    io_fseek.o                144
    io_ftell.o                 32
    io_fung.o                  44
    io_ghand.o                 72
    io_init.o                  24
    io_inst.o                  26
    io_instx.o                264
    io_ioctl.o                 62
    io_pntf.o                  36
    io_read.o                 106
    io_spr.o                   38
    io_uinst.o                124
    io_util.o               1 228                48
    io_write.o                 36
    ipsum.o                    68
    kinetis_mpu.o              20
    lwe_clr.o                  52
    lwe_crea.o                134
    lwe_set.o                 212
    lwe_waii.o                240
    lwe_watt.o                 72
    lwm_alli.o                516
    lwm_allo.o                 48
    lwm_allp.o                 24
    lwm_allz.o                 24
    lwm_alzp.o                 24
    lwm_crep.o                100
    lwm_free.o                252
    lwm_gsyp.o                 24
    lwm_gsys.o                 24
    lwm_init.o                 40
    lwm_list.o                108
    lwm_size.o                 36
    lwm_xfri.o                  8
    lwm_zsyf.o                 24
    lwm_zsys.o                 24
    lwmsgq.o                  146
    lwmsgq_recv.o             312
    lwmsgq_send.o             296
    lws_crea.o                116
    lws_dest.o                162
    lws_poll.o                 60
    lws_post.o                124
    lws_wain.o                 54
    lws_wait.o                120
    lws_wati.o                152
    mem_copy.o                380
    mem_zero.o                308
    mqx.o                     424       46        8
    mqx_ioc.o                 228
    mqx_scpu.o                 12
    mqxiinit.o                216       16
    ms_alloc.o                204
    ms_comp.o                 304
    ms_dpool.o                108
    ms_free.o                  96
    ms_id.o                    44
    ms_open.o                  22
    ms_openi.o                324
    ms_pool.o                  22
    ms_pooli.o                524
    ms_recv.o                  50
    ms_recvi.o                800
    ms_send.o                  12
    ms_sendb.o                 12
    ms_sendi.o                868
    ms_tdel.o                 216
    na_addi.o                 312
    na_crth.o                 124
    na_findi.o                148
    pa_alloi.o                280
    pa_comp.o                 124
    pa_creai.o                124
    pa_creat.o                132
    pa_dest.o                 116
    pa_extni.o                 92
    pa_free.o                 116
    pa_sallo.o                 20
    pa_sallz.o                 48
    pa_tdel.o                 152
    psp_iinit.o                20
    psp_msti.o                128
    psp_mstiq.o               132                 8
    psp_seti.o                 28
    psp_tiad.o                 72
    psp_tinm.o                 52
    psp_tiol.o                 38
    psp_tisu.o                 64
    psp_tkti.o                188
    qu_deq.o                   46
    qu_enq.o                   62
    qu_head.o                  32
    qu_init.o                  12
    qu_insrt.o                 64
    qu_next.o                  34
    qu_unlnk.o                 30
    qu_util.o                  16
    sc_ipq.o                   44
    sc_irdyq.o                192
    sc_sprio.o                104
    stack_bu.o                104
    stack_de.o                  2
    strnlen.o                  28
    ta_build.o                124
    ta_creab.o                112
    ta_creat.o                136
    ta_dest.o                 482
    ta_env.o                   60
    ta_exit.o                  36
    ta_init.o                 452
    ta_prio.o                 152
    ta_rdy.o                   72
    ta_sexit.o                 34
    ta_sync.o                   4
    ta_util.o                  18
    td_alloc.o                208
    td_gerr.o                  28
    td_get.o                   88
    td_gid.o                   16
    td_serr.o                  52
    td_serrt.o                 16
    td_util.o                  36
    ti_delay.o                 56
    ti_delfo.o                 56
    ti_deli.o                 136
    ti_delti.o                 48
    ti_delun.o                 52
    ti_elaps.o                 26
    ti_elapt.o                 64
    ti_from.o                 416
    ti_get.o                   22
    ti_getp.o                  16
    ti_getr.o                  24
    ti_gett.o                  76
    ti_krnl.o                 224
    ti_kset.o                  84
    ti_leap.o                  66
    ti_rom.o                           656
    ti_sett.o                  16
    ti_setv.o                  16
    ti_shwtf.o                 20
    ti_shwtt.o                 16
    ti_to.o                   228
    tq_creat.o                132
    tq_dest.o                 128
    tq_func.o                 216
    tq_tsusp.o                172
    -----------------------------------------------
    Total:                 25 580      958       64

rt7M_tl.a: [8]
    ABImemclr4.o                6
    ABImemcpy.o               118
    ABImemset.o                94
    ABImemset48.o              50
    I64DivMod.o               306
    I64DivZer.o                 2
    I64Shl.o                   34
    bwt_init3c.o
    cexit.o                    10
    cmain.o                    22
    cstartup_M.o               12
    data_init3.o               44
    iarEdom.o                  12
    memcmp.o                   98
    packbits_init3.o          160
    strcmp.o                   66
    strcpy.o                   68
    strlen.o                   54
    strncpy.o                 108
    zero_init3.o               34
    -----------------------------------------------
    Total:                  1 298

rtcs_twrk60n512_d_20130105.a: [9]
    arp.o                   2 092
    arpinit.o                  16                 4
    bootinit.o                 24                 8
    checksum.o                134
    ftpd.o                  1 604       17       12
    ftpd_cmd.o              4 884      321        2
    ftpd_msg.o                         992
    icmp.o                  1 664
    ifadd.o                    92
    ip-e.o                    958       16
    ip.o                    2 550
    ipif_add.o                442
    iplocal.o                 414       16
    ipradix.o                 588
    iproute.o               1 900
    iputil.o                  588
    proxyarp.o                  4
    route.o                    34
    rtcs.o                    178
    rtcscmd.o                 620        8
    rtcsglob.o                          20       76
    rtcsinit.o                          12
    rtcsmsec.o                 24
    rtcspart.o                438
    rtcspcb.o               1 174
    rtcsrand.o                220        2       12
    rtcstask.o                168
    sockutil.o                298
    soip.o                    260        8
    sosel0.o                  188
    sosel1.o                  300
    soselset.o                416
    sotcp.o                    70        8
    sstream.o               1 436       60
    tcp.o                   5 858
    tcp_buf.o               1 042
    tcp_clos.o                964
    tcp_rcv.o               1 938
    tcp_send.o              4 008
    tcpip.o                   292                 4
    ticker.o                  930
    timer.o                   212                 4
    udp.o                     796
    -----------------------------------------------
    Total:                 39 818    1 480      122

shb_l.a: [10]
    exit.o                     20
    -----------------------------------------------
    Total:                     20

shell_twrk60n512_d_20130509.a: [11]
    sh_cmdlist.o              148       20
    sh_copy.o                 496      380
    sh_create.o               280      280
    sh_del.o                  284      208
    sh_df.o                   264      236
    sh_df_driver.o            252      172
    sh_dir.o                  340      312
    sh_disect.o               444      324
    sh_exit.o                 104       12
    sh_format.o               380      408
    sh_help.o                 264      168
    sh_mkdir.o                272      240
    sh_pwd.o                  144      100
    sh_read.o                 556      576
    sh_read_wk.o              544      576
    sh_rename.o               392      328
    sh_rmdir.o                300      260
    sh_search_file_1.o        924      328
    sh_sh.o                   216      152
    sh_type.o                 304      244
    sh_update.o               200      152
    sh_util.o                 552       16
    sh_write.o                592      548
    sh_write_binary.o         588      564
    shell.o                   556      176
    -----------------------------------------------
    Total:                  9 396    6 780

usb_hdk_twrk60n512_d.a: [12]
    host_ch9.o              1 632       88
    host_close.o               80       80
    host_common.o           2 900       80        8
    host_dev_list.o           978      120
    host_main.o             1 380       80        4
    host_rcv.o                 88       80
    host_snd.o                 88       80
    khci.o                  2 708       68      512
    usb_host_hub.o            942       88        4
    usb_host_hub_sm.o       1 376
    usb_host_msd_bo.o       1 648       92        4
    usb_host_msd_queue.o      162
    usb_host_msd_ufi.o        144
    usb_mqx.o                 104       80
    usbmfs.o                1 830       32
    -----------------------------------------------
    Total:                 16 060      968      532

    Gaps                      126             1 182
    Linker created                      76
---------------------------------------------------
    Grand Total:          195 736   20 306   25 583


*******************************************************************************
*** ENTRY LIST
***

Entry                      Address    Size  Type      Object
-----                      -------    ----  ----      ------
?main                   0x00000479          Code  Gb  cmain.o [8]
ARP_age                 0x00023bad    0x22  Code  Lc  arp.o [9]
ARP_close               0x00023953    0x6e  Code  Gb  arp.o [9]
ARP_delete              0x00023a97    0x4a  Code  Lc  arp.o [9]
ARP_do_proxy            0x00024b3d     0x4  Code  Gb  proxyarp.o [9]
ARP_expire              0x00023bd1    0x6c  Code  Lc  arp.o [9]
ARP_find                0x000239c1    0x1e  Code  Lc  arp.o [9]
ARP_freelist            0x1fff5f2c     0x4  Data  Gb  arpinit.o [9]
ARP_gratuitous_send     0x00023d6d    0xd0  Code  Lc  arp.o [9]
ARP_init                0x00029b51    0x10  Code  Gb  arpinit.o [9]
ARP_insert              0x000239f1    0xa6  Code  Lc  arp.o [9]
ARP_is_complete         0x000239df    0x12  Code  Gb  arp.o [9]
ARP_open                0x000238d9    0x7a  Code  Gb  arp.o [9]
ARP_request             0x00023e3d    0x60  Code  Gb  arp.o [9]
ARP_resolve             0x00023c3d   0x130  Code  Gb  arp.o [9]
ARP_send                0x00023ae5    0xc6  Code  Lc  arp.o [9]
ARP_service             0x00023e9d   0x258  Code  Gb  arp.o [9]
BAUDRATE_ICR            0x000348b4   0x100  Data  Lc  i2c_pol_ki2c.o [3]
BAUDRATE_MULT           0x000348a8     0xc  Data  Lc  i2c_pol_ki2c.o [3]
BAUDRATE_PRESCALER      0x00034748    0x10  Data  Lc  spi_pol_dspi.o [3]
BAUDRATE_SCALER         0x00034758    0x40  Data  Lc  spi_pol_dspi.o [3]
BOOT_count              0x1fff5f34     0x4  Data  Gb  bootinit.o [9]
BOOT_init               0x00029b61    0x18  Code  Gb  bootinit.o [9]
BOOT_port               0x1fff5f38     0x4  Data  Gb  bootinit.o [9]
BYTE_SIZES              0x00032c5c    0x14  Data  Lc  sh_format.o [11]
BufRxchar               0x1fff0400  0x1820  Data  Gb  DSPSPI.o [1]
CFMPROTROM$$Base        0x00000400           --   Gb  - Linker created -
CFMPROTROM$$Limit       0x00000414           --   Gb  - Linker created -
COLOR                   0x00030a70     0x8  Data  Gb  MenuView.o [1]
CharToInt               0x0000d5df    0xce  Code  Gb  DataConvert.o [1]
ChartoFloat             0x0000d569    0x76  Code  Gb  DataConvert.o [1]
ClassDriverInfoTable    0x0003102c    0x30  Data  Lc  USB_Task.o [1]
Class_Key_Generator     0x1fff5ed0     0x4  Data  Lc  host_common.o [12]
ClockConfigurationID    0x1fff5fd4     0x1  Data  Lc  bsp_cm.o [3]
Cpu_Delay100US          0x00014a29    0x20  Code  Lc  System.o [1]
Cpu_GetClockConfiguration
                        0x00000dd5     0x6  Code  Gb  bsp_cm.o [3]
Cpu_GetCurrentMCGMode   0x00000c2d    0x46  Code  Lc  bsp_cm.o [3]
Cpu_MCGAutoTrim         0x00000863    0x6a  Code  Gb  bsp_cm.o [3]
Cpu_SetClockConfiguration
                        0x00000c73   0x162  Code  Gb  bsp_cm.o [3]
Cpu_SetMCG              0x00000bad    0x80  Code  Lc  bsp_cm.o [3]
Cpu_SetMCGModeBLPI      0x00000aa1    0x36  Code  Lc  bsp_cm.o [3]
Cpu_SetMCGModeFBE       0x000009cb    0xd6  Code  Lc  bsp_cm.o [3]
Cpu_SetMCGModeFBI       0x00000ad7    0xd6  Code  Lc  bsp_cm.o [3]
Cpu_SetMCGModePBE       0x00000929    0xa2  Code  Lc  bsp_cm.o [3]
Cpu_SetMCGModePEE       0x000008cd    0x5c  Code  Lc  bsp_cm.o [3]
DELAY_PRESCALER         0x00034798    0x10  Data  Lc  spi_pol_dspi.o [3]
DMA_INTS                0x00034708    0x40  Data  Lc  spi_dma_dspi.o [3]
DMA_RecData_OK          0x00008ef1   0x132  Code  Gb  DSPSPI.o [1]
DataSize                0x1fff0000     0x2  Data  Gb  DSPSPI.o [1]
DisTimeFlg              0x0000762f    0x3a  Code  Gb  DisTime.o [1]
Dis_PicID               0x1fff5fb4     0x1  Data  Gb  LCDUart.o [1]
ENET_0                  0x00033ab0    0x10  Data  Gb  init_enet.o [3]
ENET_Dequeue_Buffer     0x0000ef49     0xe  Code  Gb  enutil.o [3]
ENET_Enqueue_Buffer     0x0000ef41     0x8  Code  Gb  enutil.o [3]
ENET_close              0x00024199    0x82  Code  Gb  enclose.o [3]
ENET_default_params     0x00033ac0    0x24  Data  Gb  init_enet.o [3]
ENET_find_receiver      0x0002e70d   0x11a  Code  Gb  enrecv.o [3]
ENET_get_MTU            0x0000ef77    0x22  Code  Gb  enutil.o [3]
ENET_get_address        0x0000e119    0x1c  Code  Gb  enaddr.o [3]
ENET_get_mac_address    0x0000e135     0x8  Code  Gb  enaddr.o [3]
ENET_initialize         0x0000e221    0x1c  Code  Gb  eninit.o [3]
ENET_initialize_ex      0x0000e13d    0xe4  Code  Gb  eninit.o [3]
ENET_max_framesize      0x0000ef57    0x20  Code  Gb  enutil.o [3]
ENET_open               0x00024105    0x94  Code  Gb  enopen.o [3]
ENET_send               0x0002478f   0x162  Code  Gb  ensend.o [3]
ESDHC_COMMAND_XFERTYP   0x000347a8   0x100  Data  Lc  esdhc.o [3]
EVEUI                   0x1fff5814   0x600  Data  Gb  MenuView.o [1]
EVEfunflg               0x1fff5fc4     0x1  Data  Gb  LCDUart.o [1]
EVEline                 0x1fff5fc3     0x1  Data  Gb  LCDUart.o [1]
EVEnum                  0x1fff5fc9     0x1  Data  Gb  MenuView.o [1]
EVEnum_old              0x1fff5fcd     0x1  Data  Gb  MenuView.o [1]
EVEpage                 0x1fff5fc2     0x1  Data  Gb  LCDUart.o [1]
EveRdNum                0x1fff0008     0x1  Data  Gb  MenuView.o [1]
EventAddr               0x1fff3e7c   0x190  Data  Gb  MenuView.o [1]
EventKeyFlg             0x1fff5fb7     0x1  Data  Gb  LCDUart.o [1]
EventNum                0x1fff3e68    0x14  Data  Gb  MenuView.o [1]
EventOldIndex           0x1fff5fcc     0x1  Data  Gb  MenuView.o [1]
EventSave               0x00014305   0x292  Code  Gb  MenuView.o [1]
EvntPgUpFlg             0x1fff5fc8     0x1  Data  Gb  LCDUart.o [1]
EvntRxchar              0x1fff2604  0x1804  Data  Gb  DSPSPI.o [1]
EvntWave                0x1fff4014  0x1800  Data  Gb  MenuView.o [1]
FLASHX_POOL$$Base       0x00035000           --   Gb  - Linker created -
FLASHX_POOL$$Limit      0x00035001           --   Gb  - Linker created -
FTP_task                0x0000ddc1    0xec  Code  Gb  FTP_Task.o [1]
FTPd_Exit_handler       0x0000e831    0x2a  Code  Gb  ftpd.o [9]
FTPd_buffer_size        0x1fff013c     0x4  Data  Gb  ftpd.o [9]
FTPd_cd                 0x0002220f    0xde  Code  Gb  ftpd_cmd.o [9]
FTPd_cdup               0x000222ed    0x16  Code  Gb  ftpd_cmd.o [9]
FTPd_child              0x0000e63b   0x1f4  Code  Gb  ftpd.o [9]
FTPd_commands           0x00030420   0x100  Data  Gb  FTP_Task.o [1]
FTPd_convert_percents   0x0002214d    0x84  Code  Lc  ftpd_cmd.o [9]
FTPd_dele               0x00022329    0xae  Code  Gb  ftpd_cmd.o [9]
FTPd_feat               0x00022303    0x26  Code  Gb  ftpd_cmd.o [9]
FTPd_help               0x000223d7    0x9c  Code  Gb  ftpd_cmd.o [9]
FTPd_init               0x0000e29d    0x20  Code  Gb  ftpd.o [9]
FTPd_list               0x00022473   0x138  Code  Gb  ftpd_cmd.o [9]
FTPd_mkdir              0x000225b5    0xae  Code  Gb  ftpd_cmd.o [9]
FTPd_nlst               0x00022669   0x110  Code  Gb  ftpd_cmd.o [9]
FTPd_noop               0x0002277d     0xe  Code  Gb  ftpd_cmd.o [9]
FTPd_open_active_data_connection
                        0x0002305d   0x192  Code  Gb  ftpd_cmd.o [9]
FTPd_open_passive_data_connection
                        0x00023201   0x1c2  Code  Gb  ftpd_cmd.o [9]
FTPd_opts               0x0002278b     0xe  Code  Gb  ftpd_cmd.o [9]
FTPd_pass               0x00022799     0xe  Code  Gb  ftpd_cmd.o [9]
FTPd_pasv               0x000227ad    0x9a  Code  Gb  ftpd_cmd.o [9]
FTPd_pasv_port          0x1fff0134     0x2  Data  Lc  ftpd_cmd.o [9]
FTPd_port               0x00022847    0x88  Code  Gb  ftpd_cmd.o [9]
FTPd_pwd                0x000228cf    0x3a  Code  Gb  ftpd_cmd.o [9]
FTPd_quit               0x00022909    0x16  Code  Gb  ftpd_cmd.o [9]
FTPd_retr               0x00022925   0x182  Code  Gb  ftpd_cmd.o [9]
FTPd_rmdir              0x00022aa7    0xc0  Code  Gb  ftpd_cmd.o [9]
FTPd_rnfr               0x00022b6d    0xc2  Code  Gb  ftpd_cmd.o [9]
FTPd_rnto               0x00022c35    0xd8  Code  Gb  ftpd_cmd.o [9]
FTPd_rootdir            0x1fff0004     0x4  Data  Gb  FTP_Task.o [1]
FTPd_send_msg           0x0000e85b    0x52  Code  Gb  ftpd.o [9]
FTPd_site               0x00022d0d     0xe  Code  Gb  ftpd_cmd.o [9]
FTPd_size               0x00022d1b    0xe8  Code  Gb  ftpd_cmd.o [9]
FTPd_stor               0x00022e19   0x19e  Code  Gb  ftpd_cmd.o [9]
FTPd_strip_path_delimiters
                        0x000221d1    0x3e  Code  Lc  ftpd_cmd.o [9]
FTPd_syst               0x00022fb7     0xe  Code  Gb  ftpd_cmd.o [9]
FTPd_task               0x0000e2bd   0x37e  Code  Gb  ftpd.o [9]
FTPd_task_id            0x1fff5ea0     0x4  Data  Gb  ftpd.o [9]
FTPd_type               0x00022fc9    0x42  Code  Gb  ftpd_cmd.o [9]
FTPd_unimplemented      0x0002301d    0x10  Code  Gb  ftpd_cmd.o [9]
FTPd_user               0x0002300b     0xe  Code  Gb  ftpd_cmd.o [9]
FTPd_window_size        0x1fff0138     0x4  Data  Gb  ftpd.o [9]
GUI_EventList           0x00013b39   0x308  Code  Gb  MenuView.o [1]
GUI_EventMonitor        0x00013a55    0xb4  Code  Gb  MenuView.o [1]
GUI_EventWave           0x00013e51   0x33a  Code  Gb  MenuView.o [1]
GUI_INIT_SET            0x00013965    0xde  Code  Gb  MenuView.o [1]
GUI_STATUS              0x000141a9   0x144  Code  Gb  MenuView.o [1]
GUI_SYS_EVENTSET        0x00012c09   0xd3a  Code  Gb  MenuView.o [1]
GUI_SYS_PARASET         0x000122f5   0x8b2  Code  Gb  MenuView.o [1]
GUI_VIEW_HarmoGraph     0x0001184d   0x4ca  Code  Gb  MenuView.o [1]
GUI_VIEW_HarmoList      0x00011d41   0x388  Code  Gb  MenuView.o [1]
GUI_VIEW_I              0x0001106f    0xd4  Code  Gb  MenuView.o [1]
GUI_VIEW_ListMeasure    0x0001142f   0x1b0  Code  Gb  MenuView.o [1]
GUI_VIEW_ListQuality    0x000115df   0x162  Code  Gb  MenuView.o [1]
GUI_VIEW_ListQuality2   0x00011741    0xfe  Code  Gb  MenuView.o [1]
GUI_VIEW_U              0x00010f9b    0xd4  Code  Gb  MenuView.o [1]
GUI_VIEW_UI             0x00010e31   0x16a  Code  Gb  MenuView.o [1]
GUI_VIEW_VECT           0x00011143   0x2ec  Code  Gb  MenuView.o [1]
HarmoGraphIorder        0x1fff5fbb     0x1  Data  Gb  LCDUart.o [1]
HarmoGraphPhase         0x1fff5fb8     0x1  Data  Gb  LCDUart.o [1]
HarmoGraphRange         0x1fff5fb9     0x1  Data  Gb  LCDUart.o [1]
HarmoGraphUorder        0x1fff5fba     0x1  Data  Gb  LCDUart.o [1]
HarmoInfo               0x1fff000c    0x28  Data  Gb  MenuView.o [1]
HarmoListAmporRatio     0x1fff5fc0     0x1  Data  Gb  LCDUart.o [1]
HarmoListPhase          0x1fff5fbd     0x1  Data  Gb  LCDUart.o [1]
HarmoListRange          0x1fff5fbf     0x1  Data  Gb  LCDUart.o [1]
HarmoListShift          0x1fff5fbc     0x1  Data  Gb  LCDUart.o [1]
HarmoListUorI           0x1fff5fbe     0x1  Data  Gb  LCDUart.o [1]
HeadFlg                 0x1fff3e08     0x8  Data  Gb  DSPSPI.o [1]
ICMP_init               0x000291d1    0x3a  Code  Gb  icmp.o [9]
ICMP_send_error         0x00029831    0x20  Code  Gb  icmp.o [9]
ICMP_send_error_internal
                        0x00029595   0x29c  Code  Gb  icmp.o [9]
ICMP_service            0x0002920d   0x382  Code  Gb  icmp.o [9]
IPE_close               0x000235cb    0x42  Code  Gb  ip-e.o [9]
IPE_open                0x00023519    0xb2  Code  Gb  ip-e.o [9]
IPE_recv                0x0002360d   0x132  Code  Lc  ip-e.o [9]
IPE_recv_ARP            0x0002374d     0xa  Code  Gb  ip-e.o [9]
IPE_recv_IP             0x00023741     0xa  Code  Gb  ip-e.o [9]
IPE_send                0x00023761    0x86  Code  Gb  ip-e.o [9]
IPE_send_ARP_bcast      0x0002387d    0x40  Code  Gb  ip-e.o [9]
IPE_send_ARP_ucast      0x000238bd    0x1a  Code  Gb  ip-e.o [9]
IPE_send_IP             0x000237e7    0x88  Code  Gb  ip-e.o [9]
IPE_send_IP_ucast       0x0002386f     0xe  Code  Gb  ip-e.o [9]
IPIF_add                0x0002f811    0xac  Code  Gb  ipif_add.o [9]
IPIF_bind               0x0002f8bd    0xd6  Code  Gb  ipif_add.o [9]
IPIF_gate_add_redirect  0x0002f993    0x38  Code  Gb  ipif_add.o [9]
IPLOCAL_close           0x0002990b     0x4  Code  Gb  iplocal.o [9]
IPLOCAL_open            0x000298ed    0x1e  Code  Gb  iplocal.o [9]
IPLOCAL_send            0x0002990f    0x70  Code  Gb  iplocal.o [9]
IPLOCAL_service         0x00029981    0x92  Code  Gb  iplocal.o [9]
IPRADIX_findbest        0x00024b97    0x4c  Code  Gb  ipradix.o [9]
IPRADIX_init            0x00024b7d    0x1a  Code  Gb  ipradix.o [9]
IPRADIX_insert          0x00024be3   0x17c  Code  Gb  ipradix.o [9]
IPRADIX_walk            0x00024d5f    0x6a  Code  Gb  ipradix.o [9]
IP_MTU                  0x00024a55    0x2a  Code  Gb  iputil.o [9]
IP_MTU_test             0x00024a03    0x52  Code  Lc  iputil.o [9]
IP_Sum_PCB              0x0002911b    0x50  Code  Gb  checksum.o [9]
IP_Sum_immediate        0x00029105    0x16  Code  Gb  checksum.o [9]
IP_Sum_pseudo           0x0002916b    0x20  Code  Gb  checksum.o [9]
IP_complete_recv        0x0002850d   0x156  Code  Gb  ip.o [9]
IP_complete_send        0x000280dd   0x1fe  Code  Gb  ip.o [9]
IP_dest                 0x0002898d     0xa  Code  Gb  ip.o [9]
IP_get_ipif_addr        0x00024921    0x22  Code  Gb  iputil.o [9]
IP_get_ipif_addr_test   0x000248f1    0x30  Code  Lc  iputil.o [9]
IP_init                 0x00027fa1    0xbc  Code  Gb  ip.o [9]
IP_is_gate              0x000249db    0x28  Code  Gb  iputil.o [9]
IP_is_gate_test         0x000249b3    0x28  Code  Lc  iputil.o [9]
IP_is_local             0x0002497f    0x34  Code  Gb  iputil.o [9]
IP_is_local_test        0x00024943    0x3c  Code  Lc  iputil.o [9]
IP_open                 0x00029875    0x78  Code  Gb  iplocal.o [9]
IP_route                0x00028ff9    0xe8  Code  Gb  iproute.o [9]
IP_route_add_direct     0x00028a0f    0xa6  Code  Gb  iproute.o [9]
IP_route_add_indirect   0x00028b17    0xa0  Code  Gb  iproute.o [9]
IP_route_add_indirect_sort
                        0x00028ab5    0x62  Code  Lc  iproute.o [9]
IP_route_find           0x00024ad9    0x4c  Code  Gb  iputil.o [9]
IP_route_find_test      0x00024a7f    0x5a  Code  Lc  iputil.o [9]
IP_route_init           0x00028999    0x18  Code  Gb  iproute.o [9]
IP_route_insert         0x000289b1    0x5e  Code  Lc  iproute.o [9]
IP_route_local          0x00028c1b    0x92  Code  Gb  iproute.o [9]
IP_route_local_test     0x00028bb7    0x64  Code  Lc  iproute.o [9]
IP_route_multi          0x00028dc7    0x6e  Code  Gb  iproute.o [9]
IP_route_multi_test     0x00028cad   0x11a  Code  Lc  iproute.o [9]
IP_route_test           0x00028e35   0x1c4  Code  Lc  iproute.o [9]
IP_send                 0x0002805d    0x80  Code  Gb  ip.o [9]
IP_send_dgram           0x00028663   0x31e  Code  Gb  ip.o [9]
IP_service              0x000282db   0x21c  Code  Gb  ip.o [9]
IP_source               0x00028981     0xc  Code  Gb  ip.o [9]
InitAck                 0x1fff5fc7     0x1  Data  Gb  LCDUart.o [1]
KERNEL_DATA$$Base       0x1fff5fe0           --   Gb  - Linker created -
KERNEL_DATA$$Limit      0x1fff5fe4           --   Gb  - Linker created -
LCDTouchSel_Task        0x00010387    0xe0  Code  Gb  LCDUart.o [1]
LCDUartEVENT            0x00010ca5    0xee  Code  Gb  LCDUart.o [1]
LCDUartSET              0x0001082d   0x478  Code  Gb  LCDUart.o [1]
LCDUartView             0x00010467   0x3c0  Code  Gb  LCDUart.o [1]
LDD_SetClockConfiguration
                        0x00000861     0x2  Code  Gb  bsp_cm.o [3]
MACNET_IF               0x00034384    0x20  Data  Gb  macnet_init.o [3]
MACNET_RX_ISR           0x0002e511    0x26  Code  Gb  macnet_receive.o [3]
MACNET_TX_ISR           0x0002fdd7    0x26  Code  Gb  macnet_send.o [3]
MACNET_add_buffers_to_rx_ring
                        0x0002e12d    0x88  Code  Gb  macnet_receive.o [3]
MACNET_device           0x00033aa8     0x8  Data  Gb  init_enet.o [3]
MACNET_discard_current_rx
                        0x0002e1b5    0x4e  Code  Lc  macnet_receive.o [3]
MACNET_free_context     0x0002e6cd    0x40  Code  Gb  macnet_util.o [3]
MACNET_get_base_address
                        0x0002e07d     0xc  Code  Gb  macnet_mk60.o [3]
MACNET_get_vector       0x0002e6a7    0x1a  Code  Gb  macnet_util.o [3]
MACNET_initialize       0x0002dc19   0x464  Code  Gb  macnet_init.o [3]
MACNET_install_isr      0x0002e539    0x62  Code  Gb  macnet_util.o [3]
MACNET_install_isrs     0x0002e59b    0x66  Code  Gb  macnet_util.o [3]
MACNET_io_init          0x0002e08d     0xc  Code  Gb  macnet_mk60.o [3]
MACNET_join             0x0002eb81    0x88  Code  Gb  macnet_join.o [3]
MACNET_mask_interrupts  0x0002e601    0x22  Code  Gb  macnet_util.o [3]
MACNET_mii_enabled      0x0002ec09    0x14  Code  Lc  macnet_mii.o [3]
MACNET_process_rx_bds   0x0002e203   0x300  Code  Lc  macnet_receive.o [3]
MACNET_process_tx_bds   0x0002fd03    0xd4  Code  Lc  macnet_send.o [3]
MACNET_read_mii         0x0002ecb1    0x20  Code  Gb  macnet_mii.o [3]
MACNET_read_write_mii   0x0002ec1d    0x8e  Code  Lc  macnet_mii.o [3]
MACNET_rejoin           0x000016f3    0x56  Code  Gb  macnet_rejoin.o [3]
MACNET_rx_free          0x0002e0f3    0x3a  Code  Lc  macnet_receive.o [3]
MACNET_rx_free_large    0x0002e0df    0x14  Code  Lc  macnet_receive.o [3]
MACNET_rx_free_small    0x0002e0cb    0x14  Code  Lc  macnet_receive.o [3]
MACNET_rx_free_specific
                        0x0002e099    0x32  Code  Lc  macnet_receive.o [3]
MACNET_send             0x0002fb43   0x1c0  Code  Gb  macnet_send.o [3]
MACNET_shutdown         0x0002ecf1    0x4c  Code  Gb  macnet_stop.o [3]
MACNET_uninstall_all_isrs
                        0x0002e66f    0x38  Code  Gb  macnet_util.o [3]
MACNET_uninstall_isr    0x0002e623    0x4c  Code  Lc  macnet_util.o [3]
MACNET_vectors          0x000349c0    0x40  Data  Gb  macnet_mk60.o [3]
MACNET_write_mii        0x0002ecd1    0x20  Code  Gb  macnet_mii.o [3]
MCGTransitionMatrix     0x00034460    0x1c  Data  Lc  bsp_cm.o [3]
MFS_Add_cluster_to_chain
                        0x0001791f    0x9e  Code  Gb  mfs_cluster.o [6]
MFS_Attribute_match     0x0002078d    0x8c  Code  Gb  mfs_parse.o [6]
MFS_Bad_clusters        0x00017a17    0x42  Code  Gb  mfs_cluster.o [6]
MFS_Change_current_dir  0x0001c11f   0x182  Code  Gb  mfs_directory.o [6]
MFS_Check_dir_exist     0x0001c2a1    0x74  Code  Gb  mfs_directory.o [6]
MFS_Check_search_string_for_8dot3
                        0x0001f9b7    0x5a  Code  Gb  mfs_search.o [6]
MFS_Check_search_string_for_all
                        0x0001f959    0x5e  Code  Gb  mfs_search.o [6]
MFS_Clear_cluster       0x000179bd    0x5a  Code  Gb  mfs_cluster.o [6]
MFS_Close_Device        0x00019f57   0x130  Code  Gb  mfs_init.o [6]
MFS_Close_file          0x0001af6d    0xe0  Code  Gb  mfs_open.o [6]
MFS_Compress_nondotfile
                        0x000205d1    0x78  Code  Gb  mfs_parse.o [6]
MFS_Create_directory_entry
                        0x0001fb09   0x584  Code  Gb  mfs_dir_entry.o [6]
MFS_Create_entry_slave  0x00020105   0x18c  Code  Gb  mfs_dir_entry.o [6]
MFS_Create_file         0x0001b209   0x24e  Code  Gb  mfs_create.o [6]
MFS_Create_new_file     0x0001b457    0xd2  Code  Gb  mfs_create.o [6]
MFS_Create_subdir       0x0001bdc5   0x1de  Code  Gb  mfs_directory.o [6]
MFS_Create_temp_file    0x0001b529   0x18e  Code  Gb  mfs_create.o [6]
MFS_Decrement_free_clusters
                        0x000177e7    0x26  Code  Gb  mfs_cluster.o [6]
MFS_Default_Format      0x0001d975    0xa4  Code  Gb  mfs_format.o [6]
MFS_Delete_file         0x0001cf63   0x102  Code  Gb  mfs_delete.o [6]
MFS_Delete_handles      0x0001fa99    0x6e  Code  Gb  mfs_handle.o [6]
MFS_Dirname_valid       0x00020765    0x28  Code  Gb  mfs_parse.o [6]
MFS_Error_text          0x00016589   0x12a  Code  Gb  mfs_misc.o [6]
MFS_Expand_dotfile      0x000204ed    0xe4  Code  Gb  mfs_parse.o [6]
MFS_Expand_wildcard     0x00020441    0xac  Code  Gb  mfs_parse.o [6]
MFS_Filename_valid      0x00020649   0x11c  Code  Gb  mfs_parse.o [6]
MFS_Find_directory      0x0001f529   0x138  Code  Gb  mfs_search.o [6]
MFS_Find_directory_entry
                        0x0001f277   0x2b2  Code  Gb  mfs_search.o [6]
MFS_Find_entry_on_disk  0x0001f661    0xe0  Code  Gb  mfs_search.o [6]
MFS_Find_first_file     0x0001c315   0x10e  Code  Gb  mfs_directory.o [6]
MFS_Find_handle         0x0001fa6b    0x2e  Code  Gb  mfs_handle.o [6]
MFS_Find_next_file      0x0001c423    0x26  Code  Gb  mfs_directory.o [6]
MFS_Find_next_slave     0x0001f741   0x218  Code  Gb  mfs_search.o [6]
MFS_Find_unused_cluster_from
                        0x0001780d    0x72  Code  Gb  mfs_cluster.o [6]
MFS_Flush_caches        0x00016fa9    0x3a  Code  Gb  mfs_rw.o [6]
MFS_Flush_data_sector_buffer
                        0x00017087    0x3c  Code  Gb  mfs_data_sector.o [6]
MFS_Flush_directory_sector_buffer
                        0x00016ee1    0x38  Code  Gb  mfs_rw.o [6]
MFS_Flush_fat_cache     0x00017125    0x88  Code  Gb  mfs_fat.o [6]
MFS_Format              0x0001d325   0x646  Code  Gb  mfs_format.o [6]
MFS_Format_and_test     0x0001db91    0x30  Code  Gb  mfs_format.o [6]
MFS_Free_handle         0x0001fa4d    0x1e  Code  Gb  mfs_handle.o [6]
MFS_Get_current_dir     0x0001c0e9    0x36  Code  Gb  mfs_directory.o [6]
MFS_Get_date_time       0x0001c6b1    0x58  Code  Gb  mfs_time.o [6]
MFS_Get_disk_free_space
                        0x00017a7d    0x44  Code  Gb  mfs_cluster.o [6]
MFS_Get_disk_free_space_internal
                        0x00017ac1    0x56  Code  Gb  mfs_cluster.o [6]
MFS_Get_file_attributes
                        0x0001c5bd    0x5a  Code  Gb  mfs_attribute.o [6]
MFS_Get_handle          0x0001fa11    0x36  Code  Gb  mfs_handle.o [6]
MFS_Get_volume          0x0001c541    0x7c  Code  Gb  mfs_directory.o [6]
MFS_Increment_dir_index
                        0x00020291    0x6e  Code  Gb  mfs_dir_entry.o [6]
MFS_Increment_free_clusters
                        0x000177c1    0x26  Code  Gb  mfs_cluster.o [6]
MFS_Invalidate_data_sector
                        0x000170c3    0x26  Code  Gb  mfs_data_sector.o [6]
MFS_Invalidate_directory_sector
                        0x00016ebb    0x26  Code  Gb  mfs_rw.o [6]
MFS_Is_dot_directory    0x0002085b    0x2c  Code  Gb  mfs_parse.o [6]
MFS_Last_cluster        0x00017a5d    0x20  Code  Gb  mfs_cluster.o [6]
MFS_Mount_drive_internal
                        0x0001996f   0x490  Code  Gb  mfs_init.o [6]
MFS_Move_file_pointer   0x0001b051   0x1b8  Code  Gb  mfs_open.o [6]
MFS_Open_Device         0x00019e2f   0x128  Code  Gb  mfs_init.o [6]
MFS_Open_file           0x0001ae6d   0x100  Code  Gb  mfs_open.o [6]
MFS_Parse_Out_Device_Name
                        0x00019e0d    0x22  Code  Gb  mfs_init.o [6]
MFS_Parse_next_filename
                        0x00020819    0x42  Code  Gb  mfs_parse.o [6]
MFS_Parse_pathname      0x0002035d    0xb4  Code  Gb  mfs_parse.o [6]
MFS_Put_fat             0x0001736d   0x13a  Code  Gb  mfs_fat.o [6]
MFS_Read                0x0001b72f   0x266  Code  Gb  mfs_read.o [6]
MFS_Read_data_sector    0x000170e9    0x3c  Code  Gb  mfs_data_sector.o [6]
MFS_Read_device_sector  0x00016dff    0xbc  Code  Gb  mfs_rw.o [6]
MFS_Read_directory_sector
                        0x00016f19    0x90  Code  Gb  mfs_rw.o [6]
MFS_Read_fat            0x000171d7    0xac  Code  Gb  mfs_fat.o [6]
MFS_Release_chain       0x0001787f    0xa0  Code  Gb  mfs_cluster.o [6]
MFS_Remove_subdir       0x0001bfad   0x13c  Code  Gb  mfs_directory.o [6]
MFS_Rename_file         0x0001d065   0x2c0  Code  Gb  mfs_rename.o [6]
MFS_Set_date_time       0x0001c709    0x8c  Code  Gb  mfs_time.o [6]
MFS_Set_file_attributes
                        0x0001c617    0x9a  Code  Gb  mfs_attribute.o [6]
MFS_Set_volume          0x0001c449    0xf2  Code  Gb  mfs_directory.o [6]
MFS_Test_unused_clusters
                        0x0001da19   0x164  Code  Gb  mfs_format.o [6]
MFS_Update_entry        0x00020091    0x74  Code  Gb  mfs_dir_entry.o [6]
MFS_Wildcard_match      0x00020415    0x2c  Code  Gb  mfs_parse.o [6]
MFS_Write               0x0001b995   0x430  Code  Gb  mfs_write.o [6]
MFS_Write_back_fat      0x000171ad    0x2a  Code  Gb  mfs_fat.o [6]
MFS_Write_device_sector
                        0x00016d43    0xbc  Code  Gb  mfs_rw.o [6]
MFS_alloc_2paths        0x00016545    0x32  Code  Gb  mfs_misc.o [6]
MFS_alloc_path          0x0001651d    0x28  Code  Gb  mfs_misc.o [6]
MFS_device_write_internal
                        0x00016fe3    0xa4  Code  Gb  mfs_rw.o [6]
MFS_free_drive_data     0x00019923    0x4c  Code  Lc  mfs_init.o [6]
MFS_free_path           0x00016577    0x12  Code  Gb  mfs_misc.o [6]
MFS_get_cluster_from_fat
                        0x00017283    0xe4  Code  Gb  mfs_fat.o [6]
MFS_get_lfn             0x0001cd1d    0x3a  Code  Gb  mfs_lfn.o [6]
MFS_get_lfn_dir_cluster
                        0x0001ce4b   0x118  Code  Gb  mfs_lfn.o [6]
MFS_get_lfn_of_entry    0x0001cd57    0xf4  Code  Gb  mfs_lfn.o [6]
MFS_get_prev_cluster    0x0001cc85    0x98  Code  Gb  mfs_lfn.o [6]
MFS_increment_lfn       0x0001ca65    0x5a  Code  Gb  mfs_lfn.o [6]
MFS_is_read_only        0x00016345    0x1e  Code  Gb  mfs_misc.o [6]
MFS_is_valid_lfn        0x0001c8d5    0x60  Code  Gb  mfs_lfn.o [6]
MFS_lfn_checksum        0x0001cc65    0x20  Code  Gb  mfs_lfn.o [6]
MFS_lfn_dirname_valid   0x0001c93d    0x28  Code  Gb  mfs_lfn.o [6]
MFS_lfn_extract         0x0001ca2d    0x38  Code  Gb  mfs_lfn.o [6]
MFS_lfn_match           0x0001c965    0xc8  Code  Gb  mfs_lfn.o [6]
MFS_lfn_name_to_entry   0x0001cb91    0xd4  Code  Gb  mfs_lfn.o [6]
MFS_lfn_to_sfn          0x0001c795   0x140  Code  Gb  mfs_lfn.o [6]
MFS_lock                0x00016363    0x2c  Code  Gb  mfs_misc.o [6]
MFS_lock_dos_disk       0x0001638f    0x46  Code  Gb  mfs_misc.o [6]
MFS_lock_handle         0x000163d5    0x56  Code  Gb  mfs_misc.o [6]
MFS_mem_alloc           0x00016499    0x1c  Code  Gb  mfs_misc.o [6]
MFS_mem_alloc_system    0x000164e5    0x1c  Code  Gb  mfs_misc.o [6]
MFS_mem_alloc_system_zero
                        0x00016501    0x1c  Code  Gb  mfs_misc.o [6]
MFS_mem_alloc_zero      0x000164b5    0x30  Code  Gb  mfs_misc.o [6]
MFS_next_data_sector    0x0001b6c5    0x6a  Code  Gb  mfs_read.o [6]
MFS_remove_lfn_entries  0x0001cabf    0xd2  Code  Gb  mfs_lfn.o [6]
MFS_strcmp              0x00020887    0x36  Code  Gb  mfs_parse.o [6]
MFS_strupr              0x00020341    0x1c  Code  Gb  mfs_parse.o [6]
MFS_unlock              0x0001642b    0x6e  Code  Gb  mfs_misc.o [6]
MQX_init_struct         0x00034b00    0x30  Data  Gb  mqx_init.o [3]
MQX_template_list       0x000314c0   0x140  Data  Gb  yada_prj.o [1]
MainLoop                0x00021a2d   0x22a  Code  Gb  yada_prj.o [1]
MenuSwFlg               0x1fff5fb3     0x1  Data  Gb  LCDUart.o [1]
MinuteOld               0x1fff5fb2     0x1  Data  Gb  DisTime.o [1]
OtherSetIndex           0x1fff5fc5     0x1  Data  Gb  LCDUart.o [1]
PE_CpuClockConfigurations
                        0x0003447c    0x78  Data  Lc  bsp_cm.o [3]
PIN2                    0x000210d5    0x94  Code  Gb  pin2.o [1]
PhaseShift              0x0000d6ad   0x16c  Code  Gb  DataConvert.o [1]
PowRxchar               0x1fff1c20   0x9e4  Data  Gb  DSPSPI.o [1]
PowerSave               0x000145bd   0x14e  Code  Gb  MenuView.o [1]
ROUTE_new_bindif        0x00029851    0x22  Code  Gb  route.o [9]
RTCSPCB_alloc           0x00024381    0x28  Code  Gb  rtcspcb.o [9]
RTCSPCB_alloc_dup       0x0002444b    0x9a  Code  Gb  rtcspcb.o [9]
RTCSPCB_alloc_recv      0x000243f5    0x56  Code  Gb  rtcspcb.o [9]
RTCSPCB_alloc_send      0x000243a9    0x4c  Code  Gb  rtcspcb.o [9]
RTCSPCB_append_fragment
                        0x000246ef    0x58  Code  Gb  rtcspcb.o [9]
RTCSPCB_append_fragment_autofree
                        0x000246cf    0x20  Code  Gb  rtcspcb.o [9]
RTCSPCB_construct       0x000242f9    0x2e  Code  Lc  rtcspcb.o [9]
RTCSPCB_depend          0x000244e5    0x1c  Code  Gb  rtcspcb.o [9]
RTCSPCB_destroy         0x00024327     0xc  Code  Lc  rtcspcb.o [9]
RTCSPCB_fork            0x00024501    0x94  Code  Gb  rtcspcb.o [9]
RTCSPCB_free_internal   0x00024595    0xb2  Code  Lc  rtcspcb.o [9]
RTCSPCB_init            0x00024333    0x38  Code  Gb  rtcspcb.o [9]
RTCSPCB_insert_header   0x00024647    0x34  Code  Gb  rtcspcb.o [9]
RTCSPCB_memcopy         0x00024747    0x48  Code  Gb  rtcspcb.o [9]
RTCSPCB_next            0x0002467b    0x32  Code  Gb  rtcspcb.o [9]
RTCSPCB_shrink          0x000246ad    0x22  Code  Gb  rtcspcb.o [9]
RTCS_IF_ENET            0x00031788     0x4  Data  Gb  ip-e.o [9]
RTCS_IF_LOCALHOST       0x000343c4     0x4  Data  Gb  iplocal.o [9]
RTCS_cmd_complete       0x0000e0a7    0x16  Code  Gb  rtcscmd.o [9]
RTCS_cmd_internal       0x0000e093    0x14  Code  Gb  rtcscmd.o [9]
RTCS_cmd_issue          0x0000e041    0x52  Code  Gb  rtcscmd.o [9]
RTCS_cmd_service        0x0000e0bd    0x32  Code  Gb  rtcscmd.o [9]
RTCS_create             0x0000dead   0x15c  Code  Gb  rtcscmd.o [9]
RTCS_geterror           0x0000f079    0x26  Code  Gb  rtcs.o [9]
RTCS_if_add             0x0000e241    0x28  Code  Gb  ifadd.o [9]
RTCS_if_bind            0x0000e269    0x2a  Code  Gb  ifadd.o [9]
RTCS_log_error          0x0000e117     0x2  Code  Gb  rtcscmd.o [9]
RTCS_mem_alloc          0x0000ea4d    0x1c  Code  Gb  rtcspart.o [9]
RTCS_mem_alloc_system   0x0000ea85    0x1c  Code  Gb  rtcspart.o [9]
RTCS_mem_alloc_system_zero
                        0x0000eaa1    0x1c  Code  Gb  rtcspart.o [9]
RTCS_mem_alloc_zero     0x0000ea69    0x1c  Code  Gb  rtcspart.o [9]
RTCS_part_alloc         0x0000eb51    0x4c  Code  Gb  rtcspart.o [9]
RTCS_part_alloc_zero    0x0000eb9d    0x1c  Code  Gb  rtcspart.o [9]
RTCS_part_create        0x0000eac1    0x90  Code  Gb  rtcspart.o [9]
RTCS_part_destroy       0x0000ebd1    0x32  Code  Gb  rtcspart.o [9]
RTCS_part_free          0x0000ebb9    0x18  Code  Gb  rtcspart.o [9]
RTCS_protocol_table     0x000343c8     0xc  Data  Gb  rtcsinit.o [9]
RTCS_rand               0x00024233    0xac  Code  Gb  rtcsrand.o [9]
RTCS_rand_seed          0x0002421d    0x16  Code  Gb  rtcsrand.o [9]
RTCS_seterror           0x0000e0ef    0x28  Code  Gb  rtcscmd.o [9]
RTCS_setsockerror       0x0000f0a5     0x6  Code  Gb  rtcs.o [9]
RTCS_shutdown           0x0000f03b    0x3e  Code  Gb  rtcs.o [9]
RTCS_socket             0x0000eff9    0x42  Code  Gb  rtcs.o [9]
RTCS_task               0x0000ec49    0x18  Code  Lc  rtcstask.o [9]
RTCS_task_create        0x0000ec61    0x68  Code  Gb  rtcstask.o [9]
RTCS_task_exit          0x0000ecdb    0x16  Code  Gb  rtcstask.o [9]
RTCS_task_resume_creator
                        0x0000eccd     0xe  Code  Gb  rtcstask.o [9]
RTCS_time_get           0x00023465    0x18  Code  Gb  rtcsmsec.o [9]
RefreshFlg              0x1fff5fd1     0x1  Data  Gb  yada_prj.o [1]
Region$$Table$$Base     0x000300b8           --   Gb  - Linker created -
Region$$Table$$Limit    0x00030100           --   Gb  - Linker created -
SOCK_Add_owner          0x0000fea7     0x4  Code  Gb  sockutil.o [9]
SOCK_Free_sock_struct   0x0000fe51    0x52  Code  Gb  sockutil.o [9]
SOCK_Get_sock_struct    0x0000fd81    0xc4  Code  Gb  sockutil.o [9]
SOCK_Is_owner           0x0000fea3     0x4  Code  Gb  sockutil.o [9]
SOCK_STREAM_CALL        0x000336b8    0x3c  Data  Gb  sstream.o [9]
SOCK_STREAM_accept      0x00027c1f   0x11a  Code  Gb  sstream.o [9]
SOCK_STREAM_bind        0x00027a2b    0x66  Code  Gb  sstream.o [9]
SOCK_STREAM_connect     0x00027a91    0xdc  Code  Gb  sstream.o [9]
SOCK_STREAM_getpeername
                        0x00027edb    0x6a  Code  Gb  sstream.o [9]
SOCK_STREAM_getsockname
                        0x00027e71    0x6a  Code  Gb  sstream.o [9]
SOCK_STREAM_listen      0x00027b6d    0xb2  Code  Gb  sstream.o [9]
SOCK_STREAM_recv        0x00027dc5    0xac  Code  Gb  sstream.o [9]
SOCK_STREAM_send        0x00027d39    0x8c  Code  Gb  sstream.o [9]
SOCK_STREAM_shutdown    0x00027f45    0x36  Code  Gb  sstream.o [9]
SOCK_STREAM_socket      0x00027a05    0x26  Code  Gb  sstream.o [9]
SOCK_select             0x00021619   0x13c  Code  Gb  soselset.o [9]
SOCK_select_activity    0x00021755    0x56  Code  Gb  sosel0.o [9]
SOCK_select_block       0x000217ab    0x40  Code  Gb  sosel0.o [9]
SOCK_select_expire      0x000217ed    0x24  Code  Gb  sosel0.o [9]
SOCK_select_unblock     0x0002c6d3    0x48  Code  Gb  sosel1.o [9]
SOL_IP_CALL             0x00033fc0     0x8  Data  Gb  soip.o [9]
SOL_IP_getsockopt       0x0002f70d    0xba  Code  Gb  soip.o [9]
SOL_IP_setsockopt       0x0002f7c7    0x4a  Code  Gb  soip.o [9]
SOL_TCP_CALL            0x00033aec     0x8  Data  Gb  sotcp.o [9]
SOL_TCP_getsockopt      0x0000081b    0x28  Code  Gb  sotcp.o [9]
SOL_TCP_setsockopt      0x00000843    0x1e  Code  Gb  sotcp.o [9]
SPIDMA_Task             0x00009023    0xc4  Code  Gb  DSPSPI.o [1]
SPIEventFlg             0x1fff5faf     0x1  Data  Gb  DSPSPI.o [1]
SPIPowerFlg             0x1fff5fae     0x1  Data  Gb  DSPSPI.o [1]
SPI_Send                0x1fff5fb1     0x1  Data  Gb  DSPSPI.o [1]
SavePowerFlg            0x1fff5fcf     0x1  Data  Gb  MenuView.o [1]
Shell                   0x00017b6d   0x22c  Code  Gb  shell.o [11]
Shell_Task              0x00017b25    0x48  Code  Gb  Shell_Task.o [1]
Shell_cd                0x0001525d   0x14c  Code  Gb  sh_cd.o [1]
Shell_check_help_request
                        0x00016215    0x32  Code  Gb  sh_util.o [11]
Shell_command_list      0x00024dc9    0x94  Code  Gb  sh_cmdlist.o [11]
Shell_commands          0x00030b8c    0xb0  Data  Gb  Shell_Task.o [1]
Shell_copy              0x00024e5d   0x1f0  Code  Gb  sh_copy.o [11]
Shell_create            0x0002504d   0x118  Code  Gb  sh_create.o [11]
Shell_del               0x00025165   0x11c  Code  Gb  sh_del.o [11]
Shell_df                0x00025281   0x108  Code  Gb  sh_df.o [11]
Shell_df_driver         0x00015995    0xfc  Code  Gb  sh_df_driver.o [11]
Shell_dir               0x00025389   0x154  Code  Gb  sh_dir.o [11]
Shell_disect            0x000254dd   0x1bc  Code  Gb  sh_disect.o [11]
Shell_exit              0x00025699    0x68  Code  Gb  sh_exit.o [11]
Shell_format            0x00025701   0x17c  Code  Gb  sh_format.o [11]
Shell_get_current_filesystem
                        0x00016247    0x38  Code  Gb  sh_util.o [11]
Shell_get_current_filesystem_name
                        0x0001627f    0x38  Code  Gb  sh_util.o [11]
Shell_help              0x0002587d   0x108  Code  Gb  sh_help.o [11]
Shell_init_current_filesystem
                        0x00016333    0x12  Code  Lc  sh_util.o [11]
Shell_mfs_rename        0x00025bf1    0x14  Code  Lc  sh_rename.o [11]
Shell_mkdir             0x00015a91   0x110  Code  Gb  sh_mkdir.o [11]
Shell_parse_command_line
                        0x0001612d    0x5c  Code  Gb  sh_util.o [11]
Shell_parse_int_32      0x000161c1    0x54  Code  Gb  sh_util.o [11]
Shell_parse_uint_32     0x00016189    0x38  Code  Gb  sh_util.o [11]
Shell_pwd               0x000153a9    0x90  Code  Gb  sh_pwd.o [11]
Shell_read              0x00025985   0x22c  Code  Gb  sh_read.o [11]
Shell_read_wk           0x00015439   0x220  Code  Gb  sh_read_wk.o [11]
Shell_rename            0x00025c05   0x150  Code  Gb  sh_rename.o [11]
Shell_rmdir             0x00025d79   0x12c  Code  Gb  sh_rmdir.o [11]
Shell_search_file_r     0x00015ba1   0x16a  Code  Gb  sh_search_file_1.o [11]
Shell_search_file_r1    0x00015d0b   0x176  Code  Gb  sh_search_file_1.o [11]
Shell_set_current_filesystem
                        0x000162b7    0x4e  Code  Gb  sh_util.o [11]
Shell_set_current_filesystem_by_name
                        0x00016315    0x1e  Code  Gb  sh_util.o [11]
Shell_sh                0x00025ea5    0xd8  Code  Gb  sh_sh.o [11]
Shell_type              0x00025f7d   0x130  Code  Gb  sh_type.o [11]
Shell_update            0x000158a5    0xc8  Code  Gb  sh_update.o [11]
Shell_write             0x000260ad   0x250  Code  Gb  sh_write.o [11]
Shell_write_binary      0x00015659   0x24c  Code  Gb  sh_write_binary.o [11]
Sig_Fiq                 0x0000d947    0x66  Code  Gb  DataConvert.o [1]
SysDataSend             0x1fff3e30    0x38  Data  Gb  MenuView.o [1]
SysEventOldIndex        0x1fff5fcb     0x1  Data  Gb  MenuView.o [1]
SysFlashData            0x1fff0088    0x54  Data  Gb  MenuView.o [1]
SysFlashDataT           0x1fff0034    0x54  Data  Gb  MenuView.o [1]
SysParaOldIndex         0x1fff5fca     0x1  Data  Gb  MenuView.o [1]
SysSet                  0x1fff3e18    0x18  Data  Gb  LCDUart.o [1]
SysSetKeyFlg            0x1fff5fb6     0x1  Data  Gb  LCDUart.o [1]
TCPIP_Event_add         0x00021819    0x40  Code  Gb  timer.o [9]
TCPIP_Event_cancel      0x00021859    0x2e  Code  Gb  timer.o [9]
TCPIP_Event_head        0x1fff5f30     0x4  Data  Gb  timer.o [9]
TCPIP_Event_init        0x00021811     0x8  Code  Gb  timer.o [9]
TCPIP_Event_time        0x00021887    0x56  Code  Gb  timer.o [9]
TCPIP_fake_tick         0x00029a15     0x4  Code  Lc  tcpip.o [9]
TCPIP_task              0x00029a19   0x10c  Code  Gb  tcpip.o [9]
TCP_Advance_receive_user
                        0x0002a503    0x1c  Code  Gb  tcp_rcv.o [9]
TCP_Advertise_receive_window
                        0x0002a55f    0x52  Code  Gb  tcp_rcv.o [9]
TCP_Clone_tcb           0x0002bb09   0x14e  Code  Gb  tcp.o [9]
TCP_Close_TCB           0x0002a1c5   0x116  Code  Gb  tcp_clos.o [9]
TCP_Copy_from_buffer    0x0002d865    0xaa  Code  Gb  tcp_buf.o [9]
TCP_Copy_from_ring      0x0002d807    0x5e  Code  Gb  tcp_buf.o [9]
TCP_Copy_to_Rbuffer     0x0002d90f   0x1fa  Code  Gb  tcp_buf.o [9]
TCP_Copy_to_ring        0x0002d7a9    0x5e  Code  Gb  tcp_buf.o [9]
TCP_Event               0x0002b0ab    0x2c  Code  Gb  tcp.o [9]
TCP_Free_TCB            0x0002a0f9    0x72  Code  Gb  tcp_clos.o [9]
TCP_Init                0x0002aff1    0xba  Code  Gb  tcp.o [9]
TCP_Must_send_ack       0x0002a4bd    0x46  Code  Gb  tcp_rcv.o [9]
TCP_Process_RTT_measure
                        0x0002c88b    0xd2  Code  Gb  tcp_send.o [9]
TCP_Process_abort       0x0002a413    0xa2  Code  Gb  tcp_clos.o [9]
TCP_Process_accept      0x0002b75d    0xa8  Code  Gb  tcp.o [9]
TCP_Process_ack         0x0002d4a9   0x300  Code  Gb  tcp_send.o [9]
TCP_Process_bind        0x0002b137   0x102  Code  Gb  tcp.o [9]
TCP_Process_close       0x0002a325    0xee  Code  Gb  tcp_clos.o [9]
TCP_Process_create      0x0002b0d7    0x60  Code  Gb  tcp.o [9]
TCP_Process_data        0x0002a995   0x2ba  Code  Gb  tcp_rcv.o [9]
TCP_Process_effective_close
                        0x0002a2db    0x4a  Code  Gb  tcp_clos.o [9]
TCP_Process_open        0x0002b239   0x524  Code  Gb  tcp.o [9]
TCP_Process_packet      0x0002bc57   0x88c  Code  Gb  tcp.o [9]
TCP_Process_receive     0x0002a8eb    0xa6  Code  Gb  tcp_rcv.o [9]
TCP_Process_release     0x0002a16b    0x5a  Code  Gb  tcp_clos.o [9]
TCP_Process_send        0x0002d1fd   0x2a4  Code  Gb  tcp_send.o [9]
TCP_Process_signal      0x0002b805   0x220  Code  Gb  tcp.o [9]
TCP_Reply_receive       0x0002a5dd    0xc2  Code  Gb  tcp_rcv.o [9]
TCP_Return_open         0x0002ba49    0xc0  Code  Gb  tcp.o [9]
TCP_Send_IP_packet      0x0002c95d    0x36  Code  Gb  tcp_send.o [9]
TCP_Send_keepalive      0x0002ce95    0x6e  Code  Gb  tcp_send.o [9]
TCP_Send_packet         0x0002c993   0x38a  Code  Gb  tcp_send.o [9]
TCP_Send_reply_reset    0x0002cd1d    0xd8  Code  Gb  tcp_send.o [9]
TCP_Send_reset          0x0002cdf5    0xa0  Code  Gb  tcp_send.o [9]
TCP_Service_packet      0x0002c4e3   0x1f0  Code  Gb  tcp.o [9]
TCP_Setup_receive       0x0002a6e3   0x208  Code  Gb  tcp_rcv.o [9]
TCP_Start_receiving     0x0002a5b1    0x2c  Code  Gb  tcp_rcv.o [9]
TCP_Start_sending       0x0002d1af    0x4e  Code  Gb  tcp_send.o [9]
TCP_Test_done_receive   0x0002a69f    0x44  Code  Gb  tcp_rcv.o [9]
TCP_Tick_server         0x0002aef7    0xfa  Code  Gb  ticker.o [9]
TCP_Timer_advance       0x0002ae17    0x90  Code  Gb  ticker.o [9]
TCP_Timer_expire        0x0002acc7    0x2a  Code  Gb  ticker.o [9]
TCP_Timer_oneshot_max   0x0002aea7    0x50  Code  Gb  ticker.o [9]
TCP_Timer_remove        0x0002acf1    0x50  Code  Gb  ticker.o [9]
TCP_Timer_schedule      0x0002ac4f    0x78  Code  Gb  ticker.o [9]
TCP_Timer_start         0x0002ad8d    0x8a  Code  Gb  ticker.o [9]
TCP_Timer_stop          0x0002ad41    0x4c  Code  Gb  ticker.o [9]
TCP_Transmit            0x0002cf03   0x2ac  Code  Gb  tcp_send.o [9]
TCP_Truncate_receive_chunks
                        0x0002a51f    0x40  Code  Gb  tcp_rcv.o [9]
TCP_Update_send_window  0x0002c801    0x8a  Code  Gb  tcp_send.o [9]
TCP_Use_ringbuffer      0x0002db09    0xb2  Code  Gb  tcp_buf.o [9]
TCP_tick                0x1fff5f28     0x4  Data  Gb  tcpip.o [9]
TEXTSECTION$$Base       0x00000420           --   Gb  - Linker created -
TEXTSECTION$$Limit      0x0002fe9c           --   Gb  - Linker created -
TimeDis                 0x000073ff   0x230  Code  Gb  DisTime.o [1]
TimeFlg                 0x1fff0002     0x1  Data  Gb  DisTime.o [1]
TimeSet                 0x00007361    0x9e  Code  Gb  DisTime.o [1]
TimeSetIndex            0x1fff5fc6     0x1  Data  Gb  LCDUart.o [1]
Time_Ref                0x1fff5fd3     0x1  Data  Gb  yada_prj.o [1]
UDP_init                0x0002ed61    0x52  Code  Gb  udp.o [9]
UDP_service             0x0002edb5   0x2c8  Code  Gb  udp.o [9]
UIValues2HR             0x0000d529    0x40  Code  Gb  DataConvert.o [1]
USB_Event               0x1fff5e2c    0x24  Data  Gb  USB_Task.o [1]
USB_Flg                 0x1fff5fce     0x1  Data  Gb  MenuView.o [1]
USB_Stick               0x1fff5e50    0x1c  Data  Gb  USB_Task.o [1]
USB_handle              0x1fff5e6c     0x4  Data  Gb  USB_Task.o [1]
USB_log_error_internal  0x0001dc35     0x4  Code  Gb  usb_mqx.o [12]
USB_task                0x00020b93   0x168  Code  Gb  USB_Task.o [1]
U_FLAG                  0x1fff5fd2     0x1  Data  Gb  yada_prj.o [1]
UartLCD_init            0x0000b609    0x22  Code  Gb  LCDDriver.o [1]
UartTouch_init          0x0001036d    0x1a  Code  Gb  LCDUart.o [1]
VIEWHoldFlg             0x1fff5fc1     0x1  Data  Gb  LCDUart.o [1]
ViewKeyFlg              0x1fff5fb5     0x1  Data  Gb  LCDUart.o [1]
WR_WAVE_UI              0x0000d819   0x12e  Code  Gb  DataConvert.o [1]
YADA_40                 0x0000b713    0x20  Code  Gb  LCDDriver.o [1]
YADA_56                 0x0000b793    0x1e  Code  Gb  LCDDriver.o [1]
YADA_5A                 0x0000b7b1    0x1e  Code  Gb  LCDDriver.o [1]
YADA_5B                 0x0000b7cf    0x1e  Code  Gb  LCDDriver.o [1]
YADA_5F                 0x0000b96d    0x20  Code  Gb  LCDDriver.o [1]
YADA_70                 0x0000b7ed    0x1a  Code  Gb  LCDDriver.o [1]
YADA_71                 0x0000b807    0x4a  Code  Gb  LCDDriver.o [1]
YADA_98                 0x0000b733    0x60  Code  Gb  LCDDriver.o [1]
YADA_C0                 0x0000b851    0x22  Code  Gb  LCDDriver.o [1]
YADA_C103               0x0000b873    0x62  Code  Gb  LCDDriver.o [1]
YADA_C104               0x0000b8d5    0x64  Code  Gb  LCDDriver.o [1]
YADA_C108               0x0000b939    0x2a  Code  Gb  LCDDriver.o [1]
YaDa                    0x0002192d    0xf6  Code  Gb  yada_prj.o [1]
_DHCP_broadcast         0x1fff5ebc     0x4  Data  Gb  rtcsglob.o [9]
_IP_forward             0x1fff5eac     0x4  Data  Gb  rtcsglob.o [9]
_LocaleC_isalpha        0x00010311    0x22  Code  Gb  io_util.o [7]
_LocaleC_islower        0x0001035b    0x10  Code  Gb  io_util.o [7]
_LocaleC_ispunct        0x00010333    0x28  Code  Gb  io_util.o [7]
_LocaleC_isupper        0x00010219    0x10  Code  Gb  io_util.o [7]
_LocaleC_tolower        0x0000fedd    0x16  Code  Gb  io_util.o [7]
_MFS_handle_pool_grow   0x1fff016c     0x4  Data  Gb  mfs_init.o [6]
_MFS_handle_pool_init   0x1fff0168     0x4  Data  Gb  mfs_init.o [6]
_MFS_handle_pool_max    0x1fff5ecc     0x4  Data  Gb  mfs_init.o [6]
_MFS_pool_id            0x1fff5ec8     0x4  Data  Gb  mfs_init.o [6]
_RTCSPCB_grow           0x1fff5ea4     0x4  Data  Gb  rtcsglob.o [9]
_RTCSPCB_init           0x1fff0144     0x4  Data  Gb  rtcsglob.o [9]
_RTCSPCB_max            0x1fff0148     0x4  Data  Gb  rtcsglob.o [9]
_RTCSQUEUE_base         0x1fff0140     0x4  Data  Gb  rtcsglob.o [9]
_RTCSTASK_priority      0x1fff014c     0x4  Data  Gb  rtcsglob.o [9]
_RTCSTASK_stacksize     0x1fff0150     0x4  Data  Gb  rtcsglob.o [9]
_RTCS_initialized       0x1fff5ea8     0x4  Data  Gb  rtcsglob.o [9]
_RTCS_mem_pool          0x1fff5ec0     0x4  Data  Gb  rtcsglob.o [9]
_RTCS_msgpool_grow      0x1fff0158     0x4  Data  Gb  rtcsglob.o [9]
_RTCS_msgpool_init      0x1fff0154     0x4  Data  Gb  rtcsglob.o [9]
_RTCS_msgpool_max       0x1fff015c     0x4  Data  Gb  rtcsglob.o [9]
_RTCS_select            0x000215b5    0x2a  Code  Gb  soselset.o [9]
_RTCS_selectset         0x000215df    0x3a  Code  Gb  soselset.o [9]
_RTCS_socket_part_grow  0x1fff5ec4     0x4  Data  Gb  rtcsglob.o [9]
_RTCS_socket_part_init  0x1fff0160     0x4  Data  Gb  rtcsglob.o [9]
_RTCS_socket_part_max   0x1fff0164     0x4  Data  Gb  rtcsglob.o [9]
_SOCK_select_signal     0x0002c71b    0xe4  Code  Gb  sosel1.o [9]
_TCP_bypass_rx          0x1fff5eb0     0x4  Data  Gb  rtcsglob.o [9]
_TCP_bypass_tx          0x1fff5eb4     0x4  Data  Gb  rtcsglob.o [9]
_TCP_rto_min            0x1fff5eb8     0x4  Data  Gb  rtcsglob.o [9]
__BOOT_STACK_ADDRESS {Abs}
                        0x2000fef0           --   Gb  command line/config [2]
__DEFAULT_INTERRUPT_STACK_SIZE {Abs}
                        0x00000400           --   Gb  command line/config [2]
__DEFAULT_PROCESSOR_NUMBER {Abs}
                        0x00000001           --   Gb  command line/config [2]
__EXTERNAL_LCD_BASE {Abs}
                        0x60000000           --   Gb  command line/config [2]
__EXTERNAL_LCD_DC_BASE {Abs}
                        0x60010000           --   Gb  command line/config [2]
__EXTERNAL_LCD_SIZE {Abs}
                        0x0001ffff           --   Gb  command line/config [2]
__EXTERNAL_MRAM_RAM_BASE {Abs}
                        0x70000000           --   Gb  command line/config [2]
__EXTERNAL_MRAM_RAM_SIZE {Abs}
                        0x00080000           --   Gb  command line/config [2]
__EXTERNAL_MRAM_ROM_BASE {Abs}
                        0x70000000           --   Gb  command line/config [2]
__EXTERNAL_MRAM_ROM_SIZE {Abs}
                        0x00000000           --   Gb  command line/config [2]
__FLASHX_END_ADDR {Abs}
                        0x00080000           --   Gb  command line/config [2]
__FLASHX_SECT_SIZE {Abs}
                        0x00000800           --   Gb  command line/config [2]
__FLASHX_START_ADDR     0x00035000     0x1  Data  Gb  vectors.o [3]
__INTERNAL_FLASH_BASE {Abs}
                        0x00000000           --   Gb  command line/config [2]
__INTERNAL_FLASH_SIZE {Abs}
                        0x00080000           --   Gb  command line/config [2]
__INTERNAL_FLEXNVM_BASE {Abs}
                        0x00000000           --   Gb  command line/config [2]
__INTERNAL_FLEXNVM_SIZE {Abs}
                        0x00000000           --   Gb  command line/config [2]
__KERNEL_DATA_END {Abs}
                        0x2000fff0           --   Gb  command line/config [2]
__KERNEL_DATA_START     0x1fff5fe0          Data  Gb  kernel_data.o [3]
__VECTOR_TABLE_RAM_START {Abs}
                        0x1fff0000           --   Gb  command line/config [2]
__VECTOR_TABLE_ROM_START {Abs}
                        0x00000000           --   Gb  command line/config [2]
__aeabi_cdcmpeq         0x00017529          Code  Gb  DblCmpEq.o [5]
__aeabi_cdcmple         0x00016d05          Code  Gb  DblCmpLe.o [5]
__aeabi_cdrcmple        0x00016cd5          Code  Gb  DblCmpGe.o [5]
__aeabi_cfcmple         0x0000dd19          Code  Gb  FltCmpLe.o [5]
__aeabi_cfrcmple        0x00015239          Code  Gb  FltCmpGe.o [5]
__aeabi_d2f             0x00014e99          Code  Gb  DblToFlt.o [5]
__aeabi_d2iz            0x00015065          Code  Gb  DblToI32.o [5]
__aeabi_dadd            0x00014f7d          Code  Gb  DblAdd.o [5]
__aeabi_ddiv            0x00014c51          Code  Gb  DblDiv.o [5]
__aeabi_dmul            0x00014aad          Code  Gb  DblMul.o [5]
__aeabi_dsub            0x000150b9          Code  Gb  DblSub.o [5]
__aeabi_errno_addr      0x00016b59     0x6  Code  Gb  errno.o [4]
__aeabi_f2d             0x00014f29          Code  Gb  FltToDbl.o [5]
__aeabi_f2iz            0x0000dcd5          Code  Gb  FltToS32.o [5]
__aeabi_f2uiz           0x0000db8d          Code  Gb  FltToU32.o [5]
__aeabi_fadd            0x0000dd3d          Code  Gb  FltAdd.o [5]
__aeabi_fdiv            0x0000d9b9          Code  Gb  FltDiv.o [5]
__aeabi_fmul            0x0000dab5          Code  Gb  FltMul.o [5]
__aeabi_fsub            0x0000dbed          Code  Gb  FltSub.o [5]
__aeabi_i2d             0x00014a7d          Code  Gb  I32ToDbl.o [5]
__aeabi_i2f             0x0000dbb1          Code  Gb  I32ToFlt.o [5]
__aeabi_ldiv0           0x0000d16d          Code  Gb  I64DivZer.o [8]
__aeabi_ldivmod         0x0000cadd          Code  Gb  I64DivMod.o [8]
__aeabi_llsl            0x00022129          Code  Gb  I64Shl.o [8]
__aeabi_memclr4         0x0000cac1          Code  Gb  ABImemclr4.o [8]
__aeabi_memcpy          0x0000167d          Code  Gb  ABImemcpy.o [8]
__aeabi_memcpy4         0x0000169d          Code  Gb  ABImemcpy.o [8]
__aeabi_memcpy8         0x0000169d          Code  Gb  ABImemcpy.o [8]
__aeabi_ui2d            0x00014a91          Code  Gb  I32ToDbl.o [5]
__aeabi_ui2f            0x0000dbc5          Code  Gb  I32ToFlt.o [5]
__aeabi_uldivmod        0x0000cb21          Code  Gb  I64DivMod.o [8]
__boot                  0x00000421           --   Gb  cortex_boot.o [7]
__cmain                 0x00000479          Code  Gb  cmain.o [8]
__exit                  0x00001e7d    0x14  Code  Gb  exit.o [10]
__get_MSP               0x0003008d           --   Gb  dispatch.o [7]
__get_PSP               0x00030087           --   Gb  dispatch.o [7]
__get_PSR               0x00030099           --   Gb  dispatch.o [7]
__iar_Dint              0x000174a9    0x7a  Code  Gb  xdint.o [5]
__iar_Errno             0x1fff5fa4     0x4  Data  Gb  errno.o [4]
__iar_Memset4_word      0x0000d139          Code  Gb  ABImemset48.o [8]
__iar_Memset8_word      0x0000d139          Code  Gb  ABImemset48.o [8]
__iar_Memset_word       0x0000d4c9          Code  Gb  ABImemset.o [8]
__iar_Quad              0x00016b65   0x170  Code  Gb  xquad.o [5]
__iar_SB                0x00034b33          Data  Gb  bwt_init3c.o [8]
__iar_Sin               0x00015f3d   0x1f0  Code  Gb  xsin.o [5]
__iar_Strpbrk           0x0002349d    0x22  Code  Gb  strpbrk.o [4]
__iar_d2uiz             0x00015091          Code  Gb  DblToI32.o [5]
__iar_dadd              0x00014f91          Code  Gb  DblAdd.o [5]
__iar_data_init3        0x00000499    0x2c  Code  Gb  data_init3.o [8]
__iar_dlib_perthread_access
                        0x000174a7     0x2  Code  Gb  xtls.o [4]
__iar_dsub              0x000150cd          Code  Gb  DblSub.o [5]
__iar_dsubStart         0x000150df          Code  Gb  DblSub.o [5]
__iar_edom              0x00017b19          Code  Gb  iarEdom.o [8]
__iar_fadd              0x0000dd4d          Code  Gb  FltAdd.o [5]
__iar_fmod              0x00017549          Code  Gb  fmod.o [5]
__iar_fmodl             0x00017549          Code  Gb  fmod.o [5]
__iar_fsub              0x0000dbfd          Code  Gb  FltSub.o [5]
__iar_fsubStart         0x0000dc0d          Code  Gb  FltSub.o [5]
__iar_packbits_init3    0x0002fdfd    0xa0  Code  Gb  packbits_init3.o [8]
__iar_program_start     0x0000046d          Code  Gb  cstartup_M.o [8]
__iar_strcmp            0x0000b0e5          Code  Gb  strcmp.o [8]
__iar_ui2d              0x00014a95          Code  Gb  I32ToDbl.o [5]
__iar_ui2f              0x0000dbc9          Code  Gb  I32ToFlt.o [5]
__iar_zero_init3        0x0000231b    0x22  Code  Gb  zero_init3.o [8]
__low_level_init        0x0000048f     0xa  Code  Gb  iar.o [3]
__set_MSP               0x00000453           --   Gb  cortex_boot.o [7]
__vector_table          0x00000000   0x400  Data  Gb  vectors.o [3]
_adc_close              0x00005411    0xca  Code  Gb  adc.o [3]
_adc_hw_channel_deinit  0x0000a317    0x54  Code  Gb  adc_kadc.o [3]
_adc_hw_channel_init    0x0000a1fd   0x11a  Code  Gb  adc_kadc.o [3]
_adc_hw_deinit          0x0000a1e7    0x16  Code  Gb  adc_kadc.o [3]
_adc_hw_init            0x00009f29   0x2be  Code  Gb  adc_kadc.o [3]
_adc_hw_install         0x00009f23     0x6  Code  Gb  adc_kadc.o [3]
_adc_hw_ioctl           0x00009b2d   0x3f6  Code  Gb  adc_kadc.o [3]
_adc_ioctl              0x0000553d    0xda  Code  Gb  adc.o [3]
_adc_open               0x000050d9   0x336  Code  Gb  adc.o [3]
_adc_read               0x000054dd    0x5c  Code  Gb  adc.o [3]
_adc_write              0x00005539     0x4  Code  Gb  adc.o [3]
_adt_hw_channel_deinit  0x0000ac29    0xd6  Code  Gb  adt_kpdb.o [3]
_adt_hw_channel_init    0x0000aac9   0x160  Code  Gb  adt_kpdb.o [3]
_adt_hw_deinit          0x0000a8e5     0x4  Code  Gb  adt_kpdb.o [3]
_adt_hw_init            0x0000a7c5   0x120  Code  Gb  adt_kpdb.o [3]
_adt_hw_install         0x0000a7c1     0x4  Code  Gb  adt_kpdb.o [3]
_adt_hw_ioctl           0x0000a5ed   0x1d4  Code  Gb  adt_kpdb.o [3]
_adt_pause              0x0000ade3    0xac  Code  Gb  adt_kpdb.o [3]
_adt_process_data       0x0000afdf    0x9c  Code  Gb  adt_kpdb.o [3]
_adt_resume             0x0000ae8f    0xb4  Code  Gb  adt_kpdb.o [3]
_adt_stop               0x0000af43    0x9c  Code  Gb  adt_kpdb.o [3]
_adt_trigger            0x0000acff    0xe4  Code  Gb  adt_kpdb.o [3]
_allocate_sector_cache  0x0000659b    0x3a  Code  Gb  flashx.o [3]
_bsp_adc1_init          0x00034504    0x18  Data  Gb  init_adc.o [3]
_bsp_adc_channel_io_init
                        0x00001219    0xde  Code  Gb  init_gpio.o [3]
_bsp_adc_io_init        0x000011e1    0x38  Code  Gb  init_gpio.o [3]
_bsp_dspi0_init         0x0003451c    0x30  Data  Gb  init_spi.o [3]
_bsp_dspi1_init         0x0003454c    0x30  Data  Gb  init_spi.o [3]
_bsp_dspi2_init         0x0003457c    0x30  Data  Gb  init_spi.o [3]
_bsp_dspi_io_init       0x00001307    0xa2  Code  Gb  init_gpio.o [3]
_bsp_enable_card        0x00001bbd   0x1a8  Code  Gb  init_bsp.o [3]
_bsp_enable_lpt_clock   0x000220ff    0x1a  Code  Gb  timer_lpt_kinetis.o [3]
_bsp_enet_io_init       0x0000145b    0x4a  Code  Gb  init_gpio.o [3]
_bsp_esdhc0_init        0x000345ac     0xc  Data  Gb  init_esdhc.o [3]
_bsp_esdhc_io_init      0x000013a9    0x5e  Code  Gb  init_gpio.o [3]
_bsp_flashx_file_blocks
                        0x000345c8    0x30  Data  Gb  init_flashx.o [3]
_bsp_flashx_init        0x000345f8    0x20  Data  Gb  init_flashx.o [3]
_bsp_flexbus_mram_setup
                        0x000005ed    0x10  Code  Lc  init_hw.o [3]
_bsp_flexbus_setup      0x000004f3    0xfa  Code  Lc  init_hw.o [3]
_bsp_ftfx_io_init       0x000014f3    0x20  Code  Gb  init_gpio.o [3]
_bsp_get_adc_base_address
                        0x0000cac9    0x14  Code  Gb  adc_mk60.o [3]
_bsp_get_clock          0x00000f4f    0x22  Code  Gb  bsp_cm.o [3]
_bsp_get_clock_configuration
                        0x00000f47     0x8  Code  Gb  bsp_cm.o [3]
_bsp_get_dspi_base_address
                        0x00008ca9    0x14  Code  Gb  spi_mk60_dspi.o [3]
_bsp_get_dspi_vectors   0x00008cbd    0x14  Code  Gb  spi_mk60_dspi.o [3]
_bsp_get_esdhc_base_address
                        0x0000b2a1    0x10  Code  Gb  esdhc_mk60.o [3]
_bsp_get_ftfl_address   0x0002f579     0x4  Code  Gb  flash_mk60.o [3]
_bsp_get_hwticks        0x00001d6d    0x32  Code  Gb  init_bsp.o [3]
_bsp_get_i2c_base_address
                        0x0000896d    0x18  Code  Gb  i2c_mk60.o [3]
_bsp_get_i2c_vector     0x0000898d    0x18  Code  Gb  i2c_mk60.o [3]
_bsp_get_lpt_base_address
                        0x000220ad    0x14  Code  Gb  timer_lpt_kinetis.o [3]
_bsp_get_lpt_clock_frequency
                        0x000220d5    0x2a  Code  Gb  timer_lpt_kinetis.o [3]
_bsp_get_lpt_vector     0x000220c1    0x14  Code  Gb  timer_lpt_kinetis.o [3]
_bsp_get_mac_address    0x0000ef15    0x2c  Code  Gb  init_enet.o [3]
_bsp_get_serial_base_address
                        0x00007f55    0x4c  Code  Gb  serl_mk60.o [3]
_bsp_get_usb_base       0x0002093f     0xe  Code  Gb  usb_mk60.o [3]
_bsp_get_usb_vector     0x00020959     0xe  Code  Gb  usb_mk60.o [3]
_bsp_gpio_io_init       0x000014c1    0x10  Code  Gb  init_gpio.o [3]
_bsp_i2c0_init          0x00034618    0x14  Data  Gb  init_i2c.o [3]
_bsp_i2c_io_init        0x00001407    0x54  Code  Gb  init_gpio.o [3]
_bsp_initialize_hardware
                        0x00000ddb   0x13c  Code  Gb  bsp_cm.o [3]
_bsp_osc_autotrim       0x00000fcd    0x30  Code  Gb  bsp_cm.o [3]
_bsp_pdb_init           0x000344f4    0x10  Data  Gb  init_adc.o [3]
_bsp_rtc_io_init        0x000012f7    0x10  Code  Gb  init_gpio.o [3]
_bsp_sci0_init          0x0003462c    0x20  Data  Gb  init_sci.o [3]
_bsp_sci1_init          0x0003464c    0x20  Data  Gb  init_sci.o [3]
_bsp_sci2_init          0x0003466c    0x20  Data  Gb  init_sci.o [3]
_bsp_sci3_init          0x0003468c    0x20  Data  Gb  init_sci.o [3]
_bsp_sci4_init          0x000346ac    0x20  Data  Gb  init_sci.o [3]
_bsp_sci5_init          0x000346cc    0x20  Data  Gb  init_sci.o [3]
_bsp_serial_io_init     0x00000ffd   0x1e4  Code  Gb  init_gpio.o [3]
_bsp_serial_rts_init    0x000014d1    0x22  Code  Gb  init_gpio.o [3]
_bsp_set_clock_configuration
                        0x00000f17    0x30  Code  Gb  bsp_cm.o [3]
_bsp_systick            0x00001d65     0x8  Code  Gb  init_bsp.o [3]
_bsp_usb_host_callback_table
                        0x00033580    0x38  Data  Gb  khci.o [12]
_bsp_usb_host_init      0x0002090d    0x32  Code  Gb  usb_mk60.o [3]
_bsp_usb_io_init        0x000014a5    0x1c  Code  Gb  init_gpio.o [3]
_bsp_watchdog_disable   0x000004d9    0x1a  Code  Gb  init_hw.o [3]
_call_main              0x00000485          Code  Gb  cmain.o [8]
_cfm                    0x00000400    0x10  Data  Gb  vectors.o [3]
_cm_get_clock           0x00001e99     0xc  Code  Gb  cm.o [3]
_cm_get_clock_configuration
                        0x00001e91     0x8  Code  Gb  cm.o [3]
_cortex_int_disable     0x00007339    0x24  Code  Gb  cortex.o [7]
_cortex_int_enable      0x00007319    0x20  Code  Gb  cortex.o [7]
_cortex_int_init        0x000072c1    0x58  Code  Gb  cortex.o [7]
_date_to_sec            0x0000265d    0x78  Code  Lc  krtc.o [3]
_dspi_dma_deinit        0x00004925    0xe4  Code  Lc  spi_dma_dspi.o [3]
_dspi_dma_enable        0x00004a09    0xac  Code  Lc  spi_dma_dspi.o [3]
_dspi_dma_get_rx_count  0x0000463d    0x30  Code  Lc  spi_dma_dspi.o [3]
_dspi_dma_get_tx_count  0x0000466d    0x30  Code  Lc  spi_dma_dspi.o [3]
_dspi_dma_init          0x00004835    0xee  Code  Lc  spi_dma_dspi.o [3]
_dspi_dma_install       0x00004807    0x2c  Code  Gb  spi_dma_dspi.o [3]
_dspi_dma_isr_err       0x00004d45    0x3e  Code  Lc  spi_dma_dspi.o [3]
_dspi_dma_isr_rx        0x00004d85    0x1a  Code  Lc  spi_dma_dspi.o [3]
_dspi_dma_rx            0x00004ab5   0x126  Code  Lc  spi_dma_dspi.o [3]
_dspi_dma_setup         0x0000469d   0x16a  Code  Lc  spi_dma_dspi.o [3]
_dspi_dma_tx            0x00004bdd   0x166  Code  Lc  spi_dma_dspi.o [3]
_dspi_find_baudrate     0x00003c55    0xe4  Code  Lc  spi_pol_dspi.o [3]
_dspi_polled_deinit     0x00003f1d    0x78  Code  Lc  spi_pol_dspi.o [3]
_dspi_polled_init       0x00003d5d   0x1c0  Code  Gb  spi_pol_dspi.o [3]
_dspi_polled_install    0x00003d39    0x22  Code  Gb  spi_pol_dspi.o [3]
_dspi_polled_ioctl      0x00003f95   0x4b8  Code  Gb  spi_pol_dspi.o [3]
_dspi_polled_rx         0x0000455d    0x8a  Code  Lc  spi_pol_dspi.o [3]
_dspi_polled_tx         0x000045e9    0x54  Code  Lc  spi_pol_dspi.o [3]
_dspi_polled_tx_rx      0x0000446d    0xee  Code  Lc  spi_pol_dspi.o [3]
_enet_oui               0x00033ae4     0x8  Data  Gb  init_enet.o [3]
_esdhc_close            0x000059c1    0x70  Code  Gb  esdhc.o [3]
_esdhc_init             0x000056c1    0xa2  Code  Lc  esdhc.o [3]
_esdhc_install          0x0000588b    0x78  Code  Gb  esdhc.o [3]
_esdhc_ioctl            0x00005a31   0x6a0  Code  Gb  esdhc.o [3]
_esdhc_is_running       0x000056a1    0x14  Code  Lc  esdhc.o [3]
_esdhc_open             0x00005939    0x88  Code  Gb  esdhc.o [3]
_esdhc_read             0x000060ed    0xda  Code  Gb  esdhc.o [3]
_esdhc_send_command     0x00005763   0x128  Code  Lc  esdhc.o [3]
_esdhc_set_baudrate     0x00005619    0x88  Code  Lc  esdhc.o [3]
_esdhc_status_wait      0x000056b5     0xc  Code  Lc  esdhc.o [3]
_esdhc_uninstall        0x00005905    0x32  Code  Gb  esdhc.o [3]
_esdhc_write            0x000061c9    0xc6  Code  Gb  esdhc.o [3]
_event_cleanup          0x0002eb21    0x60  Code  Gb  ev_tdel.o [7]
_event_clear            0x0000ca4d    0x48  Code  Gb  ev_clear.o [7]
_event_create           0x0000c9fd    0x14  Code  Gb  ev_creat.o [7]
_event_create_auto_clear
                        0x00010e1d    0x14  Code  Gb  ev_creaa.o [7]
_event_create_component
                        0x0000d171    0xcc  Code  Gb  ev_comp.o [7]
_event_create_internal  0x0000cf71    0xc0  Code  Gb  ev_creai.o [7]
_event_open             0x0000862d    0xf0  Code  Gb  ev_open.o [7]
_event_set              0x0000871d    0xe0  Code  Gb  ev_set.o [7]
_event_wait_all         0x0000ca11    0x3a  Code  Gb  ev_all.o [7]
_event_wait_internal    0x0000d031   0x108  Code  Gb  ev_waiti.o [7]
_exit                   0x00000811          Code  Gb  cexit.o [8]
_flashx_ftfl_if         0x00034a30    0x20  Data  Gb  flash_ftfl.o [3]
_flashx_kinetisN_block_map
                        0x00034a00    0x30  Data  Gb  flash_ftfl.o [3]
_int_default_isr        0x0002dbd5    0x34  Code  Gb  int_isr.o [7]
_int_disable            0x00001e59    0x24  Code  Gb  int_disa.o [7]
_int_enable             0x000022a5    0x38  Code  Gb  int_ena.o [7]
_int_get_exception_handler
                        0x00008629     0x4  Code  Gb  int_geh.o [7]
_int_get_isr            0x0002e829    0x64  Code  Gb  int_gisr.o [7]
_int_get_isr_data       0x000085c9    0x60  Code  Gb  int_gdat.o [7]
_int_init               0x0000721d    0x78  Code  Gb  int_init.o [7]
_int_install_default_isr
                        0x00020e69    0x10  Code  Gb  int_idef.o [7]
_int_install_isr        0x000023ad    0xb0  Code  Gb  int_iisr.o [7]
_int_install_unexpected_isr
                        0x00020dcd    0x20  Code  Gb  int_iunx.o [7]
_int_kernel_isr         0x0002ffa7           --   Gb  dispatch.o [7]
_int_set_vector_table   0x0000238d     0xc  Code  Gb  int_vtab.o [7]
_int_unexpected_isr     0x0002a011    0xe8  Code  Gb  int_unx.o [7]
_io_adc_install         0x00005069    0x70  Code  Gb  adc.o [3]
_io_atoi                0x0000f44d    0x4a  Code  Gb  io_util.o [7]
_io_dev_install         0x00009ad5    0x1a  Code  Gb  io_inst.o [7]
_io_dev_install_ext     0x0000b199   0x108  Code  Gb  io_instx.o [7]
_io_dev_uninstall       0x0001a091    0x7c  Code  Gb  io_uinst.o [7]
_io_doprint             0x0000ba3d   0x9b0  Code  Gb  io_dopr.o [7]
_io_doprint_prt         0x0000c3ed    0xa0  Code  Gb  io_dopr.o [7]
_io_doprint_prt64       0x0000c495    0xfe  Code  Gb  io_dopr.o [7]
_io_fclose              0x0000c9c9    0x34  Code  Gb  io_fclos.o [7]
_io_feof                0x000167dd    0x16  Code  Gb  io_feof.o [7]
_io_ferror              0x00018e5f     0xe  Code  Gb  io_ferr.o [7]
_io_fflush              0x00017d99    0x38  Code  Gb  io_fflsh.o [7]
_io_fgetc               0x000167f3    0x46  Code  Gb  io_fgetc.o [7]
_io_fgetline            0x00017dff    0x94  Code  Gb  io_fgetl.o [7]
_io_fgets               0x00017dd1    0x2e  Code  Gb  io_fgets.o [7]
_io_flashx_check_free_space
                        0x00006c0d    0x1a  Code  Gb  flashx.o [3]
_io_flashx_close        0x00006555    0x46  Code  Gb  flashx.o [3]
_io_flashx_erase_sector
                        0x000066cb    0x54  Code  Gb  flashx.o [3]
_io_flashx_find_correct_sectors
                        0x0000671f    0xe8  Code  Gb  flashx.o [3]
_io_flashx_flush_buffer
                        0x00006807    0x1c  Code  Gb  flashx.o [3]
_io_flashx_flush_sector_buffer
                        0x00006823    0x9e  Code  Gb  flashx.o [3]
_io_flashx_install      0x00006291    0x96  Code  Gb  flashx.o [3]
_io_flashx_ioctl        0x00006c29   0x3a4  Code  Gb  flashx.o [3]
_io_flashx_open         0x00006349   0x20a  Code  Gb  flashx.o [3]
_io_flashx_read         0x000065d5    0xf6  Code  Gb  flashx.o [3]
_io_flashx_uninstall    0x00006329    0x1e  Code  Gb  flashx.o [3]
_io_flashx_write        0x000068c5   0x1b2  Code  Gb  flashx.o [3]
_io_flashx_write_partial_sector
                        0x00006a77   0x196  Code  Gb  flashx.o [3]
_io_fopen               0x0000b535    0xa0  Code  Gb  io_fopen.o [7]
_io_fputc               0x00025bb1    0x40  Code  Gb  io_fputc.o [7]
_io_fseek               0x0001674d    0x90  Code  Gb  io_fseek.o [7]
_io_ftell               0x0002347d    0x20  Code  Gb  io_ftell.o [7]
_io_fungetc             0x00017e93    0x2c  Code  Gb  io_fung.o [7]
_io_get_dev_for_path    0x0000f24d    0x9e  Code  Gb  io_util.o [7]
_io_get_first_valid_fs  0x0000f147    0x28  Code  Gb  io_util.o [7]
_io_get_fs_by_name      0x0000f10d    0x3a  Code  Gb  io_util.o [7]
_io_get_fs_name         0x0000f18f    0x48  Code  Gb  io_util.o [7]
_io_get_handle          0x0000b98d    0x48  Code  Gb  io_ghand.o [7]
_io_gpio_close          0x00004fe9    0x6a  Code  Gb  io_gpio.o [3]
_io_gpio_install        0x00004ddd    0x38  Code  Gb  io_gpio.o [3]
_io_gpio_open           0x00004e15   0x1d2  Code  Gb  io_gpio.o [3]
_io_gpio_read           0x00005061     0x4  Code  Gb  io_gpio.o [3]
_io_gpio_write          0x00005065     0x4  Code  Gb  io_gpio.o [3]
_io_i2c_int_close       0x00008a9d    0x2e  Code  Gb  i2c_int.o [3]
_io_i2c_int_install     0x000089a5    0x7c  Code  Gb  i2c_int.o [3]
_io_i2c_int_ioctl       0x00008ae5    0x2c  Code  Gb  i2c_int.o [3]
_io_i2c_int_open        0x00008a51    0x4a  Code  Gb  i2c_int.o [3]
_io_i2c_int_read        0x00008acd     0xc  Code  Gb  i2c_int.o [3]
_io_i2c_int_uninstall   0x00008a21    0x2e  Code  Gb  i2c_int.o [3]
_io_i2c_int_write       0x00008ad9     0xc  Code  Gb  i2c_int.o [3]
_io_i2c_polled_close    0x000088f9    0x2e  Code  Gb  i2c_pol.o [3]
_io_i2c_polled_install  0x000087fd    0x7c  Code  Gb  i2c_pol.o [3]
_io_i2c_polled_ioctl    0x00008941    0x2c  Code  Gb  i2c_pol.o [3]
_io_i2c_polled_open     0x000088a9    0x4e  Code  Gb  i2c_pol.o [3]
_io_i2c_polled_read     0x00008929     0xc  Code  Gb  i2c_pol.o [3]
_io_i2c_polled_uninstall
                        0x00008879    0x2e  Code  Gb  i2c_pol.o [3]
_io_i2c_polled_write    0x00008935     0xc  Code  Gb  i2c_pol.o [3]
_io_init                0x000024a5    0x18  Code  Gb  io_init.o [7]
_io_ioctl               0x00009aef    0x3e  Code  Gb  io_ioctl.o [7]
_io_is_fs_valid         0x0000f16f    0x20  Code  Gb  io_util.o [7]
_io_mfs_close           0x00019195    0x28  Code  Gb  mfs_init.o [6]
_io_mfs_dir_close       0x00016b45    0x14  Code  Gb  dir_read.o [6]
_io_mfs_dir_open        0x00016839    0xe4  Code  Gb  dir_read.o [6]
_io_mfs_dir_read        0x0001691d   0x208  Code  Gb  dir_read.o [6]
_io_mfs_dir_read_wk1    0x00015e89    0x88  Code  Gb  sh_search_file_1.o [11]
_io_mfs_install         0x00018e6d    0xa0  Code  Gb  mfs_init.o [6]
_io_mfs_ioctl           0x00019231   0x6f2  Code  Gb  mfs_init.o [6]
_io_mfs_open            0x00018f51   0x244  Code  Gb  mfs_init.o [6]
_io_mfs_read            0x000191bd    0x3e  Code  Gb  mfs_init.o [6]
_io_mfs_uninstall       0x00018f47     0x8  Code  Gb  mfs_init.o [6]
_io_mfs_uninstall_internal
                        0x00018f19    0x2e  Code  Lc  mfs_init.o [6]
_io_mfs_write           0x000191fd    0x34  Code  Gb  mfs_init.o [6]
_io_mputc               0x0000b9d5    0x34  Code  Lc  io_dopr.o [7]
_io_part_mgr_close      0x00018a75    0x1a  Code  Gb  part_mgr.o [6]
_io_part_mgr_install    0x000188b9    0x76  Code  Gb  part_mgr.o [6]
_io_part_mgr_ioctl      0x00018ac9   0x102  Code  Gb  part_mgr.o [6]
_io_part_mgr_open       0x0001894d   0x128  Code  Gb  part_mgr.o [6]
_io_part_mgr_read       0x00018a91    0x1a  Code  Gb  part_mgr.o [6]
_io_part_mgr_uninstall  0x00018945     0x8  Code  Gb  part_mgr.o [6]
_io_part_mgr_uninstall_internal
                        0x00018931    0x14  Code  Lc  part_mgr.o [6]
_io_part_mgr_write      0x00018aad    0x1a  Code  Gb  part_mgr.o [6]
_io_printf              0x00007705    0x24  Code  Gb  io_pntf.o [7]
_io_putstr              0x0000ba09    0x34  Code  Lc  io_dopr.o [7]
_io_read                0x000176f1    0x6a  Code  Gb  io_read.o [7]
_io_register_file_system
                        0x0000f1d7    0x3a  Code  Gb  io_util.o [7]
_io_rel2abs             0x0000f2eb   0x126  Code  Gb  io_util.o [7]
_io_serial_default_init
                        0x00006fcd    0x34  Code  Gb  io_sinit.o [3]
_io_serial_int_addc     0x000084d9    0xf0  Code  Gb  serl_int.o [3]
_io_serial_int_close    0x0000819d    0x5a  Code  Gb  serl_int.o [3]
_io_serial_int_install  0x00007fb9    0x7a  Code  Gb  serl_int.o [3]
_io_serial_int_ioctl    0x00008391    0xd0  Code  Gb  serl_int.o [3]
_io_serial_int_open     0x00008035   0x168  Code  Gb  serl_int.o [3]
_io_serial_int_putc_internal
                        0x00008461    0x78  Code  Gb  serl_int.o [3]
_io_serial_int_read     0x000081f9   0x150  Code  Gb  serl_int.o [3]
_io_serial_int_write    0x00008349    0x48  Code  Gb  serl_int.o [3]
_io_serial_polled_close
                        0x00007b5d    0x30  Code  Gb  serl_pol.o [3]
_io_serial_polled_install
                        0x00007a19    0x80  Code  Gb  serl_pol.o [3]
_io_serial_polled_ioctl
                        0x00007ed5    0x80  Code  Gb  serl_pol.o [3]
_io_serial_polled_open  0x00007a99    0xc4  Code  Gb  serl_pol.o [3]
_io_serial_polled_read  0x00007b8d   0x232  Code  Gb  serl_pol.o [3]
_io_serial_polled_write
                        0x00007dc1   0x112  Code  Gb  serl_pol.o [3]
_io_spi_int_close       0x00008de5    0x2e  Code  Gb  spi_int.o [3]
_io_spi_int_install     0x00008cd9    0x80  Code  Gb  spi_int.o [3]
_io_spi_int_ioctl       0x00008e2d    0x4e  Code  Gb  spi_int.o [3]
_io_spi_int_open        0x00008d89    0x5c  Code  Gb  spi_int.o [3]
_io_spi_int_read        0x00008e15     0xc  Code  Gb  spi_int.o [3]
_io_spi_int_uninstall   0x00008d59    0x2e  Code  Gb  spi_int.o [3]
_io_spi_int_write       0x00008e21     0xc  Code  Gb  spi_int.o [3]
_io_spi_polled_close    0x00008c11    0x2e  Code  Gb  spi_pol.o [3]
_io_spi_polled_install  0x00008b11    0x7c  Code  Gb  spi_pol.o [3]
_io_spi_polled_ioctl    0x00008c59    0x4e  Code  Gb  spi_pol.o [3]
_io_spi_polled_open     0x00008bbd    0x52  Code  Gb  spi_pol.o [3]
_io_spi_polled_read     0x00008c41     0xc  Code  Gb  spi_pol.o [3]
_io_spi_polled_uninstall
                        0x00008b8d    0x2e  Code  Gb  spi_pol.o [3]
_io_spi_polled_write    0x00008c4d     0xc  Code  Gb  spi_pol.o [3]
_io_sprintf             0x0001596d    0x1c  Code  Gb  io_spr.o [7]
_io_sputc               0x00015989     0xa  Code  Gb  io_spr.o [7]
_io_strtolower          0x0000f0ad    0x2c  Code  Gb  io_util.o [7]
_io_unregister_file_system
                        0x0000f211    0x38  Code  Gb  io_util.o [7]
_io_usb_mfs_callback    0x00018889    0x2e  Code  Lc  usbmfs.o [12]
_io_usb_mfs_close       0x0001843d     0x4  Code  Gb  usbmfs.o [12]
_io_usb_mfs_install     0x00018191    0xf8  Code  Gb  usbmfs.o [12]
_io_usb_mfs_ioctl       0x0001851d    0xc0  Code  Gb  usbmfs.o [12]
_io_usb_mfs_ioctl_stop  0x000184a7    0x74  Code  Lc  usbmfs.o [12]
_io_usb_mfs_open        0x00018411    0x2a  Code  Gb  usbmfs.o [12]
_io_usb_mfs_open_internal
                        0x000182a7   0x16a  Code  Lc  usbmfs.o [12]
_io_usb_mfs_read        0x00018441    0x32  Code  Gb  usbmfs.o [12]
_io_usb_mfs_read_sector_internal
                        0x000185dd    0x8a  Code  Gb  usbmfs.o [12]
_io_usb_mfs_read_sector_long_internal
                        0x00018667    0x7a  Code  Gb  usbmfs.o [12]
_io_usb_mfs_read_write_sectors_internal
                        0x000187ed    0x88  Code  Gb  usbmfs.o [12]
_io_usb_mfs_uninstall_internal
                        0x00018289    0x1e  Code  Gb  usbmfs.o [12]
_io_usb_mfs_write       0x00018475    0x32  Code  Gb  usbmfs.o [12]
_io_usb_mfs_write_sector_internal
                        0x000186e1    0x8a  Code  Gb  usbmfs.o [12]
_io_usb_mfs_write_sector_long_internal
                        0x0001876b    0x82  Code  Gb  usbmfs.o [12]
_io_validate_device     0x0000f0d9    0x34  Code  Gb  io_util.o [7]
_io_write               0x0000ce67    0x24  Code  Gb  io_write.o [7]
_is_leap_year           0x0000261f    0x3e  Code  Lc  krtc.o [3]
_ki2c_int_deinit        0x0000367d    0x58  Code  Gb  i2c_int_ki2c.o [3]
_ki2c_int_init          0x000035cd    0xae  Code  Gb  i2c_int_ki2c.o [3]
_ki2c_int_install       0x000035a9    0x20  Code  Gb  i2c_int_ki2c.o [3]
_ki2c_int_rx            0x000036d5    0xf8  Code  Gb  i2c_int_ki2c.o [3]
_ki2c_int_tx            0x000037cd    0xe2  Code  Gb  i2c_int_ki2c.o [3]
_ki2c_isr               0x000038b1   0x3a2  Code  Lc  i2c_int_ki2c.o [3]
_ki2c_polled_deinit     0x00002e79    0x36  Code  Gb  i2c_pol_ki2c.o [3]
_ki2c_polled_init       0x00002db5    0xc2  Code  Gb  i2c_pol_ki2c.o [3]
_ki2c_polled_install    0x00002d91    0x22  Code  Gb  i2c_pol_ki2c.o [3]
_ki2c_polled_ioctl      0x00002eb1   0x2de  Code  Gb  i2c_pol_ki2c.o [3]
_ki2c_polled_rx         0x0000319d    0x88  Code  Gb  i2c_pol_ki2c.o [3]
_ki2c_polled_rx_tx      0x000032a9   0x300  Code  Lc  i2c_pol_ki2c.o [3]
_ki2c_polled_tx         0x00003225    0x84  Code  Gb  i2c_pol_ki2c.o [3]
_ki2c_set_baudrate      0x00002d3d    0x54  Code  Lc  i2c_pol_ki2c.o [3]
_kinetis_mpu_disable    0x00002491    0x10  Code  Gb  kinetis_mpu.o [7]
_kuart_change_baudrate  0x00002799    0x5c  Code  Gb  serl_pol_kuart.o [3]
_kuart_int_deinit       0x00002c05    0x1e  Code  Gb  serl_int_kuart.o [3]
_kuart_int_enable       0x00002c25    0x36  Code  Gb  serl_int_kuart.o [3]
_kuart_int_err_isr      0x00002c5d    0x36  Code  Gb  serl_int_kuart.o [3]
_kuart_int_init         0x00002b89    0x7a  Code  Gb  serl_int_kuart.o [3]
_kuart_int_install      0x00002b61    0x26  Code  Gb  serl_int_kuart.o [3]
_kuart_int_peripheral_disable
                        0x00002b57     0xa  Code  Lc  serl_int_kuart.o [3]
_kuart_int_peripheral_enable
                        0x00002b4d     0xa  Code  Lc  serl_int_kuart.o [3]
_kuart_int_putc         0x00002c95    0x1c  Code  Gb  serl_int_kuart.o [3]
_kuart_polled_deinit    0x0000291d    0x30  Code  Gb  serl_pol_kuart.o [3]
_kuart_polled_getc      0x0000294d    0x12  Code  Gb  serl_pol_kuart.o [3]
_kuart_polled_init      0x00002839    0xe4  Code  Gb  serl_pol_kuart.o [3]
_kuart_polled_install   0x00002809    0x2e  Code  Gb  serl_pol_kuart.o [3]
_kuart_polled_ioctl     0x00002985   0x1c8  Code  Gb  serl_pol_kuart.o [3]
_kuart_polled_peripheral_disable
                        0x000027ff     0xa  Code  Lc  serl_pol_kuart.o [3]
_kuart_polled_peripheral_enable
                        0x000027f5     0xa  Code  Lc  serl_pol_kuart.o [3]
_kuart_polled_putc      0x00002961    0x12  Code  Gb  serl_pol_kuart.o [3]
_kuart_polled_status    0x00002975    0x10  Code  Gb  serl_pol_kuart.o [3]
_lpt_clear_int          0x00022071    0x16  Code  Gb  timer_lpt.o [3]
_lpt_init               0x00021fd9    0x6a  Code  Gb  timer_lpt.o [3]
_lpt_install            0x00021f51    0x78  Code  Gb  timer_lpt.o [3]
_lpt_mask_int           0x00022045    0x16  Code  Gb  timer_lpt.o [3]
_lpt_run                0x00022087    0x26  Code  Gb  timer_lpt.o [3]
_lpt_set_period         0x00021cc1   0x290  Code  Lc  timer_lpt.o [3]
_lpt_unmask_int         0x0002205b    0x16  Code  Gb  timer_lpt.o [3]
_lwevent_clear          0x00020ded    0x34  Code  Gb  lwe_clr.o [7]
_lwevent_create         0x00020dc1     0xa  Code  Gb  lwe_crea.o [7]
_lwevent_create_internal
                        0x00020d45    0x74  Code  Gb  lwe_crea.o [7]
_lwevent_set            0x0000cc11    0xd4  Code  Gb  lwe_set.o [7]
_lwevent_wait_internal  0x00020e79    0xf0  Code  Gb  lwe_waii.o [7]
_lwevent_wait_ticks     0x00020e21    0x48  Code  Gb  lwe_watt.o [7]
_lwmem_alloc            0x00002349    0x14  Code  Gb  lwm_allo.o [7]
_lwmem_alloc_at         0x0000235d    0x16  Code  Gb  lwm_allo.o [7]
_lwmem_alloc_at_internal
                        0x00002013   0x100  Code  Gb  lwm_alli.o [7]
_lwmem_alloc_from       0x0000f579    0x14  Code  Gb  lwm_allp.o [7]
_lwmem_alloc_internal   0x00001f15    0xfe  Code  Gb  lwm_alli.o [7]
_lwmem_alloc_system     0x00001849    0x18  Code  Gb  lwm_gsys.o [7]
_lwmem_alloc_system_from
                        0x0000f5a9    0x18  Code  Gb  lwm_gsyp.o [7]
_lwmem_alloc_system_zero
                        0x00007fa1    0x18  Code  Gb  lwm_zsys.o [7]
_lwmem_alloc_system_zero_from
                        0x0000f5c1    0x18  Code  Gb  lwm_zsyf.o [7]
_lwmem_alloc_zero       0x0000228d    0x18  Code  Gb  lwm_allz.o [7]
_lwmem_alloc_zero_from  0x0000f591    0x18  Code  Gb  lwm_alzp.o [7]
_lwmem_create_pool      0x00001eb1    0x5c  Code  Gb  lwm_crep.o [7]
_lwmem_free             0x000070e1    0xfc  Code  Gb  lwm_free.o [7]
_lwmem_get_highwater    0x00001871     0xc  Code  Gb  lwm_size.o [7]
_lwmem_get_next_block_internal
                        0x0002ea71    0x6c  Code  Gb  lwm_list.o [7]
_lwmem_init_internal    0x00001821    0x28  Code  Gb  lwm_init.o [7]
_lwmem_set_type         0x00001861    0x10  Code  Gb  lwm_size.o [7]
_lwmem_transfer_internal
                        0x00002285     0x8  Code  Gb  lwm_xfri.o [7]
_lwmsgq_init            0x00026e19     0xa  Code  Gb  lwmsgq.o [7]
_lwmsgq_init_internal   0x00026d91    0x80  Code  Gb  lwmsgq.o [7]
_lwmsgq_receive         0x00026e25   0x138  Code  Gb  lwmsgq_recv.o [7]
_lwmsgq_send            0x00026fcd   0x128  Code  Gb  lwmsgq_send.o [7]
_lwsem_create           0x00001b65     0xc  Code  Gb  lws_crea.o [7]
_lwsem_create_hidden    0x00001b71     0xc  Code  Gb  lws_crea.o [7]
_lwsem_create_internal  0x00001b09    0x52  Code  Gb  lws_crea.o [7]
_lwsem_destroy          0x0000fa11     0xa  Code  Gb  lws_dest.o [7]
_lwsem_destroy_internal
                        0x0000f979    0x90  Code  Gb  lws_dest.o [7]
_lwsem_poll             0x00024b41    0x3c  Code  Gb  lws_poll.o [7]
_lwsem_post             0x0000b4b9    0x7c  Code  Gb  lws_post.o [7]
_lwsem_wait             0x0000b2c5    0x78  Code  Gb  lws_wait.o [7]
_lwsem_wait_ticks       0x0001ad01    0x98  Code  Gb  lws_wati.o [7]
_lwsem_wait_timed_internal
                        0x0001f241    0x36  Code  Gb  lws_wain.o [7]
_main                   0x0000048b          Code  Gb  cmain.o [8]
_mem_copy               0x0000b33d   0x17c  Code  Gb  mem_copy.o [7]
_mem_sum_ip             0x0002918b    0x44  Code  Gb  ipsum.o [7]
_mem_test_and_set       0x00030071           --   Gb  dispatch.o [7]
_mem_zero               0x00001549   0x134  Code  Gb  mem_zero.o [7]
_mfs_partition_destroy  0x0001a087     0x8  Code  Gb  mfs_init.o [6]
_mfs_validate_device    0x0001adc9    0xa2  Code  Gb  mfs_valdev.o [6]
_mqx                    0x00000669   0x18a  Code  Gb  mqx.o [7]
_mqx_api_call           0x0002fec9           --   Gb  dispatch.o [7]
_mqx_exit               0x000007f3     0xc  Code  Gb  mqx.o [7]
_mqx_get_io_component_handle
                        0x0000e969    0x1e  Code  Gb  mqx_ioc.o [7]
_mqx_idle_task          0x0002eae1    0x40  Code  Gb  idletask.o [7]
_mqx_init_kernel_data_internal
                        0x00001749    0xd8  Code  Gb  mqxiinit.o [7]
_mqx_kernel_data        0x1fff0170     0x4  Data  Gb  mqx.o [7]
_mqx_link_io_component_handle
                        0x0000e9cd    0x7a  Code  Gb  mqx_ioc.o [7]
_mqx_set_cpu_type       0x0000233d     0xc  Code  Gb  mqx_scpu.o [7]
_mqx_set_io_component_handle
                        0x0000e987    0x46  Code  Gb  mqx_ioc.o [7]
_mqx_system_stack       0x1fff5f14     0x4  Data  Gb  mqx.o [7]
_mqx_vendor             0x000337ec     0x4  Data  Gb  mqx.o [7]
_mqx_version_number     0x000337e8     0x4  Data  Gb  mqx.o [7]
_mqx_zero_tick_struct   0x000337dc     0xc  Data  Gb  mqx.o [7]
_msg_alloc              0x0000ed5d    0xcc  Code  Gb  ms_alloc.o [7]
_msg_cleanup            0x0002f59d    0xd8  Code  Gb  ms_tdel.o [7]
_msg_create_component   0x00010089   0x130  Code  Gb  ms_comp.o [7]
_msg_free               0x000101b9    0x60  Code  Gb  ms_free.o [7]
_msgpool_add_internal   0x0000f8ad    0xb8  Code  Gb  ms_pooli.o [7]
_msgpool_create         0x0000ec31    0x16  Code  Gb  ms_pool.o [7]
_msgpool_create_internal
                        0x0000f759   0x150  Code  Gb  ms_pooli.o [7]
_msgpool_destroy        0x0000ecf1    0x6c  Code  Gb  ms_dpool.o [7]
_msgq_get_id            0x0000ec05    0x2c  Code  Gb  ms_id.o [7]
_msgq_insert_message_internal
                        0x0000fcdd    0xa4  Code  Gb  ms_sendi.o [7]
_msgq_open              0x00029b39    0x16  Code  Gb  ms_open.o [7]
_msgq_open_internal     0x00029bad   0x144  Code  Gb  ms_openi.o [7]
_msgq_receive           0x00029b79    0x32  Code  Gb  ms_recv.o [7]
_msgq_receive_internal  0x00029cf1   0x320  Code  Gb  ms_recvi.o [7]
_msgq_send              0x0000eed5     0xc  Code  Gb  ms_send.o [7]
_msgq_send_blocked_internal
                        0x0000ee81     0xc  Code  Gb  ms_sendb.o [7]
_msgq_send_internal     0x0000fa1d   0x2ba  Code  Gb  ms_sendi.o [7]
_name_add_internal      0x0000d2a9   0x138  Code  Gb  na_addi.o [7]
_name_create_handle_internal
                        0x0000d44d    0x7c  Code  Gb  na_crth.o [7]
_name_find_internal     0x0000c935    0x94  Code  Gb  na_findi.o [7]
_opened_fs_table        0x1fff5edc    0x30  Data  Lc  io_util.o [7]
_parse_next_filename    0x0000f411    0x3c  Code  Lc  io_util.o [7]
_partition_alloc_internal
                        0x0000ff71   0x118  Code  Gb  pa_alloi.o [7]
_partition_alloc_system
                        0x0000f65d    0x14  Code  Gb  pa_sallo.o [7]
_partition_alloc_system_zero
                        0x00020ab9    0x30  Code  Gb  pa_sallz.o [7]
_partition_cleanup      0x0002f675    0x98  Code  Gb  pa_tdel.o [7]
_partition_create       0x0000f5d9    0x84  Code  Gb  pa_creat.o [7]
_partition_create_component
                        0x00010239    0x7c  Code  Gb  pa_comp.o [7]
_partition_create_internal
                        0x0000fef5    0x7c  Code  Gb  pa_creai.o [7]
_partition_destroy      0x0000f6e5    0x74  Code  Gb  pa_dest.o [7]
_partition_extend_internal
                        0x000102b5    0x5c  Code  Gb  pa_extni.o [7]
_partition_free         0x0000f671    0x74  Code  Gb  pa_free.o [7]
_pend_svc               0x0002ff45           --   Gb  dispatch.o [7]
_pmgr_disk_to_host      0x00018d47    0x3e  Code  Gb  part_mgr.o [6]
_pmgr_get_part_info     0x00018cd7    0x70  Code  Gb  part_mgr.o [6]
_pmgr_host_to_disk      0x00018d85    0xda  Code  Gb  part_mgr.o [6]
_pmgr_set_part_info     0x00018bcb   0x10c  Code  Gb  part_mgr.o [6]
_port_int_prio          0x00034ae0     0x8  Data  Lc  io_gpio_kgpio.o [3]
_psp_add_ticks          0x0000cd69    0x48  Code  Gb  psp_tiad.o [7]
_psp_build_stack_frame  0x0000221d    0x68  Code  Gb  stack_bu.o [7]
_psp_destroy_stack_frame
                        0x0002eadd     0x2  Code  Gb  stack_de.o [7]
_psp_exception_return   0x00030039           --   Gb  dispatch.o [7]
_psp_init_readyqs       0x00001a97    0x66  Code  Gb  sc_irdyq.o [7]
_psp_int_init           0x00002379    0x14  Code  Gb  psp_iinit.o [7]
_psp_int_install        0x00007295    0x10  Code  Gb  int_inst.o [7]
_psp_msecs_to_ticks     0x0000cea9    0x80  Code  Gb  psp_msti.o [7]
_psp_msecs_to_ticks_quick
                        0x0000cce5    0x84  Code  Gb  psp_mstiq.o [7]
_psp_normalize_ticks    0x0000b5d5    0x34  Code  Gb  psp_tinm.o [7]
_psp_seconds_to_ticks   0x0000ce8d    0x1c  Code  Gb  psp_seti.o [7]
_psp_set_kernel_disable_level
                        0x00001a49    0x4e  Code  Gb  sc_irdyq.o [7]
_psp_subtract_ticks     0x0000c611    0x3a  Code  Gb  psp_tisu.o [7]
_psp_ticks_to_time      0x0000c69d    0xbc  Code  Gb  psp_tkti.o [7]
_psp_time_to_ticks      0x0000c5eb    0x26  Code  Gb  psp_tiol.o [7]
_queue_dequeue          0x0000ce39    0x2e  Code  Gb  qu_deq.o [7]
_queue_enqueue          0x000022dd    0x3e  Code  Gb  qu_enq.o [7]
_queue_head             0x000202ff    0x20  Code  Gb  qu_head.o [7]
_queue_init             0x00001ea5     0xc  Code  Gb  qu_init.o [7]
_queue_insert           0x000071dd    0x40  Code  Gb  qu_insrt.o [7]
_queue_is_empty         0x0001dbc1    0x10  Code  Gb  qu_util.o [7]
_queue_next             0x0002031f    0x22  Code  Gb  qu_next.o [7]
_queue_unlink           0x00020ae9    0x1e  Code  Gb  qu_unlnk.o [7]
_rtc_get_time           0x000026ed     0x8  Code  Gb  krtc.o [3]
_rtc_get_time_mqxd      0x000026f5    0x18  Code  Gb  krtc.o [3]
_rtc_init               0x000024d3    0xe6  Code  Gb  krtc.o [3]
_rtc_isr_app            0x000025b9    0x66  Code  Gb  krtc.o [3]
_rtc_set_time           0x000026d5    0x18  Code  Gb  krtc.o [3]
_rtc_sync_with_mqx      0x00002751    0x48  Code  Gb  krtc.o [3]
_rtc_time_from_mqx_date
                        0x00002745     0xc  Code  Gb  krtc.o [3]
_rtc_time_to_mqx_date   0x00002731    0x14  Code  Gb  krtc.o [3]
_rtc_wait_ms            0x000024bd    0x16  Code  Lc  krtc.o [3]
_sched_check_scheduler_internal
                        0x0002fea9           --   Gb  dispatch.o [7]
_sched_execute_scheduler_internal
                        0x0002fec5           --   Gb  dispatch.o [7]
_sched_insert_priorityq_internal
                        0x0000cf29    0x2c  Code  Gb  sc_ipq.o [7]
_sched_run_internal     0x0002fea5           --   Gb  dispatch.o [7]
_sched_set_priority_internal
                        0x000212ad    0x68  Code  Gb  sc_sprio.o [7]
_sched_start_internal   0x0002fea1           --   Gb  dispatch.o [7]
_strnlen                0x0000cf55    0x1c  Code  Gb  strnlen.o [7]
_svc_handler            0x0002fecf           --   Gb  dispatch.o [7]
_task_alloc_td_internal
                        0x0000214d    0xd0  Code  Gb  td_alloc.o [7]
_task_block             0x0002fecb           --   Gb  dispatch.o [7]
_task_build_internal    0x0000f4fd    0x7c  Code  Gb  ta_build.o [7]
_task_check_stack       0x0000eef1    0x20  Code  Gb  td_util.o [7]
_task_create            0x0000e95d     0xc  Code  Gb  ta_creat.o [7]
_task_create_blocked    0x00026f5d    0x70  Code  Gb  ta_creab.o [7]
_task_create_internal   0x0000e8e1    0x78  Code  Gb  ta_creat.o [7]
_task_destroy           0x0002ea65     0xa  Code  Gb  ta_dest.o [7]
_task_destroy_internal  0x0002e88d   0x1d2  Code  Gb  ta_dest.o [7]
_task_exit_function_internal
                        0x0002ed3d    0x1e  Code  Gb  ta_exit.o [7]
_task_fill_stack_internal
                        0x00001a09    0x14  Code  Gb  ta_init.o [7]
_task_get_environment   0x0000efbb    0x1a  Code  Gb  ta_env.o [7]
_task_get_error         0x000072a5    0x16  Code  Gb  td_gerr.o [7]
_task_get_id            0x0000eee1    0x10  Code  Gb  td_gid.o [7]
_task_get_td            0x0000ee29    0x58  Code  Gb  td_get.o [7]
_task_get_template_ptr  0x0000f965    0x12  Code  Gb  ta_util.o [7]
_task_init_internal     0x00001885   0x184  Code  Gb  ta_init.o [7]
_task_ready             0x0000ee8d    0x48  Code  Gb  ta_rdy.o [7]
_task_ready_internal    0x00001a1d    0x24  Code  Gb  ta_init.o [7]
_task_set_environment   0x0000ef99    0x22  Code  Gb  ta_env.o [7]
_task_set_error         0x00002119    0x34  Code  Gb  td_serr.o [7]
_task_set_error_td_internal
                        0x0002dc09    0x10  Code  Gb  td_serrt.o [7]
_task_set_exit_handler  0x0000efd5    0x22  Code  Gb  ta_sexit.o [7]
_task_set_priority      0x00021215    0x90  Code  Gb  ta_prio.o [7]
_task_sync_priority_internal
                        0x00021315     0x4  Code  Gb  ta_sync.o [7]
_taskq_create           0x0000c759    0x84  Code  Gb  tq_creat.o [7]
_taskq_destroy          0x0000c7dd    0x80  Code  Gb  tq_dest.o [7]
_taskq_resume           0x0000c8c9    0x64  Code  Gb  tq_func.o [7]
_taskq_suspend          0x0000c85d    0x6c  Code  Gb  tq_func.o [7]
_taskq_suspend_task     0x00021169    0xac  Code  Gb  tq_tsusp.o [7]
_time_check_if_leap     0x0000c5a9    0x42  Code  Gb  ti_leap.o [7]
_time_days_in_month_internal
                        0x00033818    0x1c  Data  Gb  ti_rom.o [7]
_time_delay             0x0000b161    0x38  Code  Gb  ti_delay.o [7]
_time_delay_for         0x0000d415    0x38  Code  Gb  ti_delfo.o [7]
_time_delay_internal    0x0000cdb1    0x88  Code  Gb  ti_deli.o [7]
_time_delay_ticks       0x0001ad99    0x30  Code  Gb  ti_delti.o [7]
_time_delay_until       0x0000d3e1    0x34  Code  Gb  ti_delun.o [7]
_time_from_date         0x0000780d   0x1a0  Code  Gb  ti_from.o [7]
_time_get               0x00007a01    0x16  Code  Gb  ti_get.o [7]
_time_get_elapsed       0x000234bf    0x1a  Code  Gb  ti_elaps.o [7]
_time_get_elapsed_ticks
                        0x000234d9    0x3c  Code  Gb  ti_elapt.o [7]
_time_get_resolution    0x0002dbbd    0x18  Code  Gb  ti_getr.o [7]
_time_get_ticks         0x0000c651    0x4c  Code  Gb  ti_gett.o [7]
_time_get_ticks_per_sec
                        0x0001acf1    0x10  Code  Gb  ti_getp.o [7]
_time_notify_kernel     0x00007001    0xe0  Code  Gb  ti_krnl.o [7]
_time_secs_before_month_internal
                        0x00033834    0x68  Data  Gb  ti_rom.o [7]
_time_secs_before_year_internal
                        0x0003389c   0x20c  Data  Gb  ti_rom.o [7]
_time_set               0x000079ad    0x54  Code  Gb  ti_kset.o [7]
_time_set_hwtick_function
                        0x0000247d    0x14  Code  Gb  ti_shwtf.o [7]
_time_set_hwticks_per_tick
                        0x0000246d    0x10  Code  Gb  ti_shwtt.o [7]
_time_set_ticks_per_sec
                        0x0000245d    0x10  Code  Gb  ti_sett.o [7]
_time_set_timer_vector  0x0000239d    0x10  Code  Gb  ti_setv.o [7]
_time_to_date           0x00007729    0xe4  Code  Gb  ti_to.o [7]
_usb_host_cancel_call_interface
                        0x0001e08b    0x22  Code  Gb  host_main.o [12]
_usb_host_ch9_clear_feature
                        0x0001e917    0x7a  Code  Gb  host_ch9.o [12]
_usb_host_ch9_get_descriptor
                        0x0001e991    0x52  Code  Gb  host_ch9.o [12]
_usb_host_ch9_set_address
                        0x0001e9e3    0x46  Code  Gb  host_ch9.o [12]
_usb_host_ch9_set_configuration
                        0x0001ea29    0x44  Code  Gb  host_ch9.o [12]
_usb_host_ch9_set_feature
                        0x0001ea6d    0x74  Code  Gb  host_ch9.o [12]
_usb_host_ch9_set_interface
                        0x0001eae1    0x50  Code  Gb  host_ch9.o [12]
_usb_host_close_pipe    0x000208bd    0x4c  Code  Gb  host_close.o [12]
_usb_host_close_pipe_call_interface
                        0x0001e0ad    0x20  Code  Gb  host_main.o [12]
_usb_host_driver_info_register
                        0x0001a80b    0x30  Code  Gb  host_common.o [12]
_usb_host_driver_install
                        0x0001dbd1    0x60  Code  Gb  usb_mqx.o [12]
_usb_host_get_tr_element
                        0x0001e433    0x6e  Code  Gb  host_main.o [12]
_usb_host_init          0x0001e12d   0x18a  Code  Gb  host_main.o [12]
_usb_host_init_call_interface
                        0x0001e00d    0x1e  Code  Gb  host_main.o [12]
_usb_host_new_tr_element
                        0x0001e3ed    0x46  Code  Lc  host_main.o [12]
_usb_host_open_pipe     0x0001e357    0x96  Code  Gb  host_main.o [12]
_usb_host_open_pipe_call_interface
                        0x0001e0cd    0x20  Code  Gb  host_main.o [12]
_usb_host_open_pipe_cleanup
                        0x0001e32d    0x2a  Code  Gb  host_main.o [12]
_usb_host_recv_data     0x00020a61    0x58  Code  Gb  host_rcv.o [12]
_usb_host_recv_data_call_interface
                        0x0001e06b    0x20  Code  Gb  host_main.o [12]
_usb_host_register_ch9_callback
                        0x0001e853    0x36  Code  Gb  host_ch9.o [12]
_usb_host_register_service
                        0x0001e2b7    0x76  Code  Gb  host_main.o [12]
_usb_host_send_call_interface
                        0x0001e02b    0x20  Code  Gb  host_main.o [12]
_usb_host_send_data     0x00020a09    0x52  Code  Gb  host_snd.o [12]
_usb_host_send_setup    0x0001e4fd    0x6a  Code  Gb  host_main.o [12]
_usb_host_send_setup_call_interface
                        0x0001e04b    0x20  Code  Gb  host_main.o [12]
_usb_host_set_up_TR     0x0001e4a1    0x5c  Code  Gb  host_main.o [12]
_usb_host_update_device_address_call_interface
                        0x0001e10d    0x20  Code  Gb  host_main.o [12]
_usb_host_update_max_packet_size_call_interface
                        0x0001e0ed    0x20  Code  Gb  host_main.o [12]
_usb_hostdev_cntrl_request
                        0x0001eb31    0x92  Code  Gb  host_ch9.o [12]
_usb_hostdev_free_buffer
                        0x0001a1f7    0x6c  Code  Gb  host_common.o [12]
_usb_hostdev_get_buffer
                        0x0001a17d     0xc  Code  Gb  host_common.o [12]
_usb_hostdev_get_buffer_aligned
                        0x0001a189    0x6e  Code  Gb  host_common.o [12]
_usb_hostdev_get_descriptor
                        0x0001a2cf   0x1ca  Code  Gb  host_common.o [12]
_usb_hostdev_select_interface
                        0x0001aa3f   0x1dc  Code  Gb  host_common.o [12]
_usb_khci_add_int_tr    0x00026369    0x6c  Code  Lc  khci.o [12]
_usb_khci_atom_tr       0x00026a4d   0x304  Code  Lc  khci.o [12]
_usb_khci_attach        0x000264d1    0x7c  Code  Lc  khci.o [12]
_usb_khci_bus_control   0x000269bd     0x4  Code  Lc  khci.o [12]
_usb_khci_cancel        0x0002699d    0x20  Code  Lc  khci.o [12]
_usb_khci_detach        0x00026591    0x2e  Code  Lc  khci.o [12]
_usb_khci_get_frame_number
                        0x000269c1    0x10  Code  Lc  khci.o [12]
_usb_khci_get_hot_int_tr
                        0x0002640b    0xc6  Code  Lc  khci.o [12]
_usb_khci_host_close_pipe
                        0x00026d6d    0x24  Code  Lc  khci.o [12]
_usb_khci_init          0x0002688d    0xa6  Code  Lc  khci.o [12]
_usb_khci_init_int_tr   0x00026353    0x16  Code  Lc  khci.o [12]
_usb_khci_isr           0x000262fd    0x56  Code  Lc  khci.o [12]
_usb_khci_process_tr_complete
                        0x000269d1    0x7c  Code  Lc  khci.o [12]
_usb_khci_recv          0x0002697b    0x22  Code  Lc  khci.o [12]
_usb_khci_reset         0x0002654d    0x44  Code  Lc  khci.o [12]
_usb_khci_rm_int_tr     0x000263d5    0x36  Code  Lc  khci.o [12]
_usb_khci_send          0x00026937    0x22  Code  Lc  khci.o [12]
_usb_khci_send_setup    0x00026959    0x22  Code  Lc  khci.o [12]
_usb_khci_shutdown      0x00026933     0x4  Code  Lc  khci.o [12]
_usb_khci_task          0x000265bf   0x272  Code  Lc  khci.o [12]
_usb_khci_task_create   0x00026831    0x5c  Code  Lc  khci.o [12]
abs                     0x0000dbe3     0x8  Code  Gb  abs.o [4]
adc_address             0x00034af0     0x8  Data  Lc  adc_mk60.o [3]
adc_bundle              0x1fff5f54     0x4  Data  Gb  adc_kadc.o [3]
adc_calibrate           0x0000a47b    0xaa  Code  Lc  adc_kadc.o [3]
adc_complete_isr        0x0000a45d    0x1e  Code  Lc  adc_kadc.o [3]
adc_get_calibration_data
                        0x0000a525    0x64  Code  Lc  adc_kadc.o [3]
adc_internal            0x1fff5f40    0x14  Data  Lc  adc_kadc.o [3]
adc_process_all_data    0x0000a409    0x32  Code  Gb  adc_kadc.o [3]
adc_process_data        0x0000a36b    0x9e  Code  Lc  adc_kadc.o [3]
adc_set_calibration_data
                        0x0000a589    0x64  Code  Lc  adc_kadc.o [3]
adt_idelay_isr          0x0000b07d    0x36  Code  Lc  adt_kpdb.o [3]
adt_period_prescaler    0x0000a8e9   0x1e0  Code  Lc  adt_kpdb.o [3]
alarm_time              0x1fff5e90     0x4  Data  Lc  krtc.o [3]
bdt                     0x1fff0200   0x200  Data  Lc  khci.o [12]
class_interface_map     0x1fff0108    0x24  Data  Gb  usb_classes.o [1]
cos                     0x00014f77     0x6  Code  Gb  cos.o [5]
count                   0x1fff5fb0     0x1  Data  Lc  DSPSPI.o [1]
delay_ms                0x00014a49    0x16  Code  Gb  System.o [1]
delay_us                0x00014a61    0x1a  Code  Gb  System.o [1]
device                  0x1fff5e70    0x20  Data  Gb  USB_Task.o [1]
dspi_address            0x00034a50     0xc  Data  Lc  spi_mk60_dspi.o [3]
dspi_vectors            0x00034a5c     0xc  Data  Lc  spi_mk60_dspi.o [3]
evntyear_old            0x1fff5fa8     0x2  Data  Gb  MenuView.o [1]
exit                    0x000004d5     0x4  Code  Gb  exit.o [4]
first_irq               0x1fff5f3c     0x4  Data  Gb  io_gpio.o [3]
flexnvm_flash_ioctl     0x0002f4df    0x96  Code  Gb  flash_ftfl.o [3]
flexnvm_prog_part       0x0002f477    0x40  Code  Gb  flash_ftfl.o [3]
flexnvm_read_resource   0x0002f433    0x44  Code  Gb  flash_ftfl.o [3]
flexnvm_set_flexram     0x0002f4b7    0x28  Code  Gb  flash_ftfl.o [3]
flg_int                 0x00014769   0x1e6  Code  Gb  MenuView.o [1]
fmod                    0x00017549          Code  Gb  fmod.o [5]
fmodl                   0x00017549          Code  Gb  fmod.o [5]
ftfl_flash_command_sequence
                        0x0002f07d   0x1c4  Code  Lc  flash_ftfl.o [3]
ftfl_flash_deinit       0x0002f275    0x22  Code  Gb  flash_ftfl.o [3]
ftfl_flash_erase_sector
                        0x0002f2bf    0xa2  Code  Gb  flash_ftfl.o [3]
ftfl_flash_init         0x0002f241    0x34  Code  Gb  flash_ftfl.o [3]
ftfl_flash_write_sector
                        0x0002f361    0xb8  Code  Gb  flash_ftfl.o [3]
ftfl_init_ram_function  0x0002f297    0x28  Code  Gb  flash_ftfl.o [3]
ftfl_ram_function       0x0002f419    0x18  Code  Lc  flash_ftfl.o [3]
ftfl_ram_function_end   0x0002f431     0x2  Code  Lc  flash_ftfl.o [3]
ftpmsg_bad_option       0x00033dcc    0x1c  Data  Gb  ftpd_msg.o [9]
ftpmsg_badcmd           0x00033cb0    0x18  Data  Gb  ftpd_msg.o [9]
ftpmsg_badport          0x00033cc8    0x18  Data  Gb  ftpd_msg.o [9]
ftpmsg_banner           0x00033bf8    0x1c  Data  Gb  ftpd_msg.o [9]
ftpmsg_cd_error         0x00033e54    0x20  Data  Gb  ftpd_msg.o [9]
ftpmsg_delete_error     0x00033e94    0x1c  Data  Gb  ftpd_msg.o [9]
ftpmsg_goodbye          0x00033d18    0x10  Data  Gb  ftpd_msg.o [9]
ftpmsg_help_end         0x00033e24    0x30  Data  Gb  ftpd_msg.o [9]
ftpmsg_help_start       0x00033df4    0x30  Data  Gb  ftpd_msg.o [9]
ftpmsg_logged           0x00033c78    0x10  Data  Gb  ftpd_msg.o [9]
ftpmsg_no_datacon       0x00033f68    0x20  Data  Gb  ftpd_msg.o [9]
ftpmsg_no_file          0x00033ef8    0x34  Data  Gb  ftpd_msg.o [9]
ftpmsg_no_fs            0x00033d28    0x3c  Data  Gb  ftpd_msg.o [9]
ftpmsg_no_memory        0x00033f88    0x38  Data  Gb  ftpd_msg.o [9]
ftpmsg_ok               0x00033eb0     0xc  Data  Gb  ftpd_msg.o [9]
ftpmsg_opening_datacon  0x00033f2c    0x20  Data  Gb  ftpd_msg.o [9]
ftpmsg_pasv_mode        0x00033d64    0x38  Data  Gb  ftpd_msg.o [9]
ftpmsg_portok           0x00033be0    0x18  Data  Gb  ftpd_msg.o [9]
ftpmsg_rmdir_error      0x00033e74    0x20  Data  Gb  ftpd_msg.o [9]
ftpmsg_rxok             0x00033c14    0x34  Data  Gb  ftpd_msg.o [9]
ftpmsg_site_info        0x00033d9c    0x30  Data  Gb  ftpd_msg.o [9]
ftpmsg_size             0x00033d00    0x18  Data  Gb  ftpd_msg.o [9]
ftpmsg_syst             0x00033de8     0xc  Data  Gb  ftpd_msg.o [9]
ftpmsg_tx_complete      0x00033f4c    0x1c  Data  Gb  ftpd_msg.o [9]
ftpmsg_txok             0x00033c48    0x30  Data  Gb  ftpd_msg.o [9]
ftpmsg_type_ascii       0x00033ebc    0x14  Data  Gb  ftpd_msg.o [9]
ftpmsg_type_image       0x00033ed0    0x14  Data  Gb  ftpd_msg.o [9]
ftpmsg_type_unknown     0x00033ee4    0x14  Data  Gb  ftpd_msg.o [9]
ftpmsg_unimp            0x00033ce0    0x20  Data  Gb  ftpd_msg.o [9]
ftpmsg_writeeof         0x00033c9c    0x14  Data  Gb  ftpd_msg.o [9]
ftpmsg_writefail        0x00033c88    0x14  Data  Gb  ftpd_msg.o [9]
get_irq_mask            0x00009141    0x2a  Code  Lc  io_gpio_kgpio.o [3]
gpio_cpu_configure      0x0000916b   0x160  Code  Gb  io_gpio_kgpio.o [3]
gpio_cpu_init           0x000092cb     0xa  Code  Gb  io_gpio_kgpio.o [3]
gpio_cpu_ioctl          0x000094c9   0x4f8  Code  Gb  io_gpio_kgpio.o [3]
gpio_cpu_open           0x00009389   0x140  Code  Gb  io_gpio_kgpio.o [3]
gpio_eport_irq          0x000099c1    0x9c  Code  Lc  io_gpio_kgpio.o [3]
gpio_global_irq_map     0x1fff5f90    0x14  Data  Gb  io_gpio_kgpio.o [3]
gpio_global_pin_map     0x1fff5f7c    0x14  Data  Gb  io_gpio_kgpio.o [3]
hub_anchor              0x1fff5f0c     0x4  Data  Lc  usb_host_hub.o [12]
init_hardware           0x000005fd    0x3c  Code  Gb  init_hw.o [3]
install_isr             0x000092d5    0xb4  Code  Lc  io_gpio_kgpio.o [3]
int_callback            0x000218e5    0x1e  Code  Gb  yada_prj.o [1]
isalpha                 0x00010229     0x8  Code  Gb  io_util.o [7]
isdigit                 0x00016d33    0x10  Code  Gb  sh_util.o [11]
isgraph                 0x0000f4dd    0x18  Code  Gb  io_util.o [7]
isprint                 0x0000feb3    0x2a  Code  Gb  io_util.o [7]
ispunct                 0x00010231     0x8  Code  Gb  io_util.o [7]
isupper                 0x0000feab     0x8  Code  Gb  io_util.o [7]
isxdigit                0x0002343d    0x24  Code  Gb  ftpd_cmd.o [9]
kinetis_flash_invalidate_cache
                        0x0002f57d    0x16  Code  Gb  flash_mk60.o [3]
linemark                0x000120dd   0x176  Code  Gb  MenuView.o [1]
lower_hex_string        0x00033804    0x14  Data  Lc  io_dopr.o [7]
lpt_address             0x000342a8     0x4  Data  Lc  timer_lpt_kinetis.o [3]
lpt_clock_source        0x000342b0     0x4  Data  Lc  timer_lpt_kinetis.o [3]
lpt_vectors             0x000342ac     0x4  Data  Lc  timer_lpt_kinetis.o [3]
main                    0x000004c5    0x10  Code  Gb  mqx_main.o [3]
mass_anchor             0x1fff5f10     0x4  Data  Lc  usb_host_msd_bo.o [12]
mem_flash_app           0x00020f69   0x16c  Code  Gb  mem_flash.o [1]
memcmp                  0x0001775d          Code  Gb  memcmp.o [8]
memcpy                  0x0000b2b5     0xe  Code  Gb  esdhc.o [3]
months                  0x00033bb0    0x30  Data  Lc  dir_read.o [6]
pctl_ptr_arr            0x00034acc    0x14  Data  Lc  io_gpio_kgpio.o [3]
pdb_external            0x1fff0178     0x4  Data  Lc  adt_kpdb.o [3]
pdb_internal            0x1fff5f58    0x24  Data  Lc  adt_kpdb.o [3]
phy_ksz8041_IF          0x000343a4    0x14  Data  Gb  phy_ks8721bl.o [3]
phy_ksz8041_discover_addr
                        0x0002f9cb    0x46  Code  Lc  phy_ks8721bl.o [3]
phy_ksz8041_get_link_status
                        0x0002fafd    0x46  Code  Lc  phy_ks8721bl.o [3]
phy_ksz8041_get_speed   0x0002fab7    0x46  Code  Lc  phy_ks8721bl.o [3]
phy_ksz8041_init        0x0002fa11    0xa6  Code  Lc  phy_ks8721bl.o [3]
pipe_init_params_prototype
                        0x000340c4    0x24  Data  Lc  host_dev_list.o [12]
print_current_time      0x00007691    0x1e  Code  Lc  DisTime.o [1]
print_mqx_time          0x00007669    0x28  Code  Lc  DisTime.o [1]
print_rtc_time          0x000076af    0x28  Code  Lc  DisTime.o [1]
read_buffer             0x1fff012c     0x8  Data  Gb  yada_prj.o [1]
req_prototype           0x00034200     0x8  Data  Lc  host_ch9.o [12]
reseed                  0x1fff5f24     0x4  Data  Lc  rtcsrand.o [9]
rtcs_enet               0x0003177c     0xc  Data  Lc  ip-e.o [9]
rtcs_local              0x000343b8     0xc  Data  Lc  iplocal.o [9]
seed                    0x1fff5f20     0x4  Data  Lc  rtcsrand.o [9]
send_U16str             0x0000b6d1    0x2e  Code  Gb  LCDDriver.o [1]
send_U8str              0x0000b6a3    0x2e  Code  Gb  LCDDriver.o [1]
send_area               0x0000b67b    0x28  Code  Gb  LCDDriver.o [1]
send_byte               0x0000b62b    0x12  Code  Gb  LCDDriver.o [1]
send_end                0x0000b6ff    0x14  Code  Gb  LCDDriver.o [1]
send_word               0x0000b63d    0x2a  Code  Gb  LCDDriver.o [1]
send_xy                 0x0000b667    0x14  Code  Gb  LCDDriver.o [1]
sin                     0x000150b1     0x6  Code  Gb  sin.o [5]
spi2_dma_int            0x00008e7d    0x74  Code  Gb  DSPSPI.o [1]
spifd_2                 0x1fff3e10     0x4  Data  Gb  DSPSPI.o [1]
state                   0x1fff0174     0x4  Data  Lc  rtcsrand.o [9]
strcat                  0x00020b07    0x1e  Code  Gb  strcat.o [4]
strcmp                  0x0000b0e5          Code  Gb  strcmp.o [8]
strcpy                  0x0000f499          Code  Gb  strcpy.o [8]
strlen                  0x0000b129          Code  Gb  strlen.o [8]
strncmp                 0x0000ca95    0x2a  Code  Gb  strncmp.o [4]
strncpy                 0x0000d23d          Code  Gb  strncpy.o [8]
strpbrk                 0x00023461     0x4  Code  Gb  strpbrk.o [4]
sw_time                 0x1fff5e94     0x4  Data  Lc  krtc.o [3]
systick_config          0x00001b7d     0xc  Code  Gb  init_bsp.o [3]
systick_init            0x00001b89    0x34  Code  Lc  init_bsp.o [3]
tcp_socket_task         0x00021319   0x29c  Code  Gb  tcpip_socket_task.o [1]
time                    0x1fff400c     0x8  Data  Gb  MenuView.o [1]
timer_isr               0x00021903    0x2a  Code  Lc  yada_prj.o [1]
tolower                 0x0000f4f5     0x8  Code  Gb  io_util.o [7]
tr_index                0x1fff5ed4     0x4  Data  Lc  host_common.o [12]
uart_isr                0x00002cb1    0x76  Code  Gb  serl_int_kuart.o [3]
uart_lcd                0x1fff3e14     0x4  Data  Gb  LCDDriver.o [1]
upper_hex_string        0x000337f0    0x14  Data  Lc  io_dopr.o [7]
usb_class_hub_clear_feature
                        0x0002788d    0x1e  Code  Gb  usb_host_hub.o [12]
usb_class_hub_clear_port_feature
                        0x000278ab    0x24  Code  Gb  usb_host_hub.o [12]
usb_class_hub_cntrl_callback
                        0x00027711    0x1a  Code  Gb  usb_host_hub.o [12]
usb_class_hub_cntrl_common
                        0x0002772b    0xfe  Code  Gb  usb_host_hub.o [12]
usb_class_hub_get_app   0x000276b1    0x60  Code  Gb  usb_host_hub.o [12]
usb_class_hub_get_descriptor
                        0x00027829    0x40  Code  Gb  usb_host_hub.o [12]
usb_class_hub_get_port_status
                        0x000278ef    0x22  Code  Gb  usb_host_hub.o [12]
usb_class_hub_get_status
                        0x000278cf    0x20  Code  Gb  usb_host_hub.o [12]
usb_class_hub_init      0x00027655    0x5c  Code  Gb  usb_host_hub.o [12]
usb_class_hub_int_callback
                        0x000279e9    0x1a  Code  Gb  usb_host_hub.o [12]
usb_class_hub_set_port_feature
                        0x00027869    0x24  Code  Gb  usb_host_hub.o [12]
usb_class_hub_wait_for_interrupt
                        0x00027911    0xcc  Code  Gb  usb_host_hub.o [12]
usb_class_mass_call_back_cbw
                        0x0001ecdd    0xa2  Code  Lc  usb_host_msd_bo.o [12]
usb_class_mass_call_back_csw
                        0x0001ee55   0x12e  Code  Lc  usb_host_msd_bo.o [12]
usb_class_mass_call_back_dphase
                        0x0001ed7f    0xd6  Code  Lc  usb_host_msd_bo.o [12]
usb_class_mass_clear_bulk_pipe_on_usb
                        0x0001f06d    0x7c  Code  Lc  usb_host_msd_bo.o [12]
usb_class_mass_deleteq  0x000209af    0x34  Code  Gb  usb_host_msd_queue.o [12]
usb_class_mass_get_pending_request
                        0x000209e3    0x26  Code  Gb  usb_host_msd_queue.o [12]
usb_class_mass_init     0x0001ebd1    0x88  Code  Gb  usb_host_msd_bo.o [12]
usb_class_mass_pass_on_usb
                        0x0001ef83    0xea  Code  Lc  usb_host_msd_bo.o [12]
usb_class_mass_q_init   0x00020967     0xc  Code  Gb  usb_host_msd_queue.o [12]
usb_class_mass_q_insert
                        0x00020973    0x3c  Code  Gb  usb_host_msd_queue.o [12]
usb_class_mass_reset_callback
                        0x0001f151    0xd0  Code  Lc  usb_host_msd_bo.o [12]
usb_class_mass_reset_recovery_on_usb
                        0x0001f0e9    0x68  Code  Gb  usb_host_msd_bo.o [12]
usb_class_mass_storage_device_command
                        0x0001ec59    0x84  Code  Gb  usb_host_msd_bo.o [12]
usb_dev_list_attach_device
                        0x0001ddef   0x120  Code  Gb  host_dev_list.o [12]
usb_dev_list_close_pipe
                        0x0001df19    0x46  Code  Lc  host_dev_list.o [12]
usb_dev_list_close_pipe_bundle
                        0x0001df5f    0x2a  Code  Gb  host_dev_list.o [12]
usb_dev_list_detach_device
                        0x0001df89    0x82  Code  Gb  host_dev_list.o [12]
usb_dev_list_free_mem   0x0001dc8f    0x76  Code  Gb  host_dev_list.o [12]
usb_dev_list_free_memlist
                        0x0001dc39    0x56  Code  Gb  host_dev_list.o [12]
usb_dev_list_get_mem    0x0001dd05    0xea  Code  Gb  host_dev_list.o [12]
usb_filesystem_install  0x00017ec1   0x18c  Code  Gb  USB_File.o [1]
usb_filesystem_uninstall
                        0x0001804d    0xde  Code  Gb  USB_File.o [1]
usb_host_ch9_dev_req    0x0001e889    0x8e  Code  Lc  host_ch9.o [12]
usb_host_class_intf_init
                        0x0001a517    0xf8  Code  Gb  host_common.o [12]
usb_host_class_intf_validate
                        0x0001a60f    0x22  Code  Gb  host_common.o [12]
usb_host_cntrl_transaction_done
                        0x0001e571   0x2e2  Code  Lc  host_ch9.o [12]
usb_host_driver_info_match
                        0x0001a631    0xec  Code  Lc  host_common.o [12]
usb_host_driver_info_nonzero
                        0x0001a787    0x4a  Code  Lc  host_common.o [12]
usb_host_driver_info_scan
                        0x0001a71d    0x6a  Code  Lc  host_common.o [12]
usb_host_hub_device_event
                        0x000270f5    0x9e  Code  Gb  usb_host_hub_sm.o [12]
usb_host_hub_device_sm  0x00027195   0x45c  Code  Lc  usb_host_hub_sm.o [12]
usb_host_hub_int_callback
                        0x000275f1    0x60  Code  Lc  usb_host_hub_sm.o [12]
usb_host_map_class_intf
                        0x0001a7d1    0x3a  Code  Lc  host_common.o [12]
usb_host_mass_device_event
                        0x00020b25    0x6e  Code  Gb  USB_Task.o [1]
usb_host_state_struct_ptr
                        0x1fff5ed8     0x4  Data  Gb  host_main.o [12]
usb_hostdev_attach_detach
                        0x0001a10d    0x48  Code  Gb  host_common.o [12]
usb_hostdev_delete_interface
                        0x0001a83b    0xce  Code  Gb  host_common.o [12]
usb_hostdev_get_class   0x0001a263    0x6c  Code  Lc  host_common.o [12]
usb_hostdev_get_pipe_handle
                        0x0001a499    0x7e  Code  Gb  host_common.o [12]
usb_hostdev_mask_class_etc
                        0x0001a909    0x2a  Code  Lc  host_common.o [12]
usb_hostdev_open_pipe   0x0001a933   0x10c  Code  Lc  host_common.o [12]
usb_hostdev_tr_init     0x0001ac1b    0x36  Code  Gb  host_common.o [12]
usb_hostdev_validate    0x0001a155    0x28  Code  Gb  host_common.o [12]
usb_mass_ufi_cancel     0x0001ace5     0xc  Code  Gb  usb_host_msd_ufi.o [12]
usb_mass_ufi_generic    0x0001ac61    0x84  Code  Gb  usb_host_msd_ufi.o [12]
user_enables            0x1fff5e98     0x4  Data  Lc  krtc.o [3]
user_requests           0x1fff5e9c     0x4  Data  Lc  krtc.o [3]


[1] = L:\git_workspace\YD_PRJ_NEW_20130323_git_\IAR\twrk60n512\Int Flash Debug\Obj
[2] = command line
[3] = bsp_twrk60n512_130418_SPI_TX_56Data_Buf6175_RTC.a
[4] = dl7M_tln.a
[5] = m7M_tl.a
[6] = mfs_twrk60n512_d.a
[7] = psp_twrk60n512_d.a
[8] = rt7M_tl.a
[9] = rtcs_twrk60n512_d_20130105.a
[10] = shb_l.a
[11] = shell_twrk60n512_d_20130509.a
[12] = usb_hdk_twrk60n512_d.a

  195 736 bytes of readonly  code memory
   20 306 bytes of readonly  data memory
   25 583 bytes of readwrite data memory

Errors: none
Warnings: none
